
HOST_KM.elf:     file format elf32-littleriscv
HOST_KM.elf
architecture: riscv:rv32, flags 0x00000112:
EXEC_P, HAS_SYMS, D_PAGED
start address 0x00000000

Program Header:
    LOAD off    0x00001000 vaddr 0x00000000 paddr 0x00000000 align 2**12
         filesz 0x00006394 memsz 0x00006394 flags r-x
    LOAD off    0x00008000 vaddr 0x20000000 paddr 0x00006394 align 2**12
         filesz 0x00000270 memsz 0x000013c8 flags rw-
    LOAD off    0x00008800 vaddr 0x20004800 paddr 0x20004800 align 2**12
         filesz 0x00000000 memsz 0x00000800 flags rw-

Sections:
Idx Name          Size      VMA       LMA       File off  Algn
  0 .init         00000038  00000000  00000000  00001000  2**1
                  CONTENTS, ALLOC, LOAD, READONLY, CODE
  1 .vector       00000108  00000038  00000038  00001038  2**1
                  CONTENTS, ALLOC, LOAD, READONLY, CODE
  2 .text         00006254  00000140  00000140  00001140  2**2
                  CONTENTS, ALLOC, LOAD, READONLY, CODE
  3 .fini         00000000  00006394  00006394  00008270  2**0
                  CONTENTS, ALLOC, LOAD, CODE
  4 .dalign       00000000  20000000  20000000  00008270  2**0
                  CONTENTS
  5 .dlalign      00000000  00006394  00006394  00008270  2**0
                  CONTENTS
  6 .data         00000270  20000000  00006394  00008000  2**2
                  CONTENTS, ALLOC, LOAD, DATA
  7 .bss          00001158  20000270  00006604  00008270  2**2
                  ALLOC
  8 .stack        00000800  20004800  20004800  00008800  2**0
                  ALLOC
  9 .debug_info   00023609  00000000  00000000  00008270  2**0
                  CONTENTS, READONLY, DEBUGGING
 10 .debug_abbrev 00005954  00000000  00000000  0002b879  2**0
                  CONTENTS, READONLY, DEBUGGING
 11 .debug_aranges 00000df0  00000000  00000000  000311d0  2**3
                  CONTENTS, READONLY, DEBUGGING
 12 .debug_ranges 00000fc0  00000000  00000000  00031fc0  2**3
                  CONTENTS, READONLY, DEBUGGING
 13 .debug_line   00018be5  00000000  00000000  00032f80  2**0
                  CONTENTS, READONLY, DEBUGGING
 14 .debug_str    00005372  00000000  00000000  0004bb65  2**0
                  CONTENTS, READONLY, DEBUGGING
 15 .comment      00000033  00000000  00000000  00050ed7  2**0
                  CONTENTS, READONLY
 16 .debug_frame  00002ab0  00000000  00000000  00050f0c  2**2
                  CONTENTS, READONLY, DEBUGGING
 17 .debug_loc    00007467  00000000  00000000  000539bc  2**0
                  CONTENTS, READONLY, DEBUGGING
 18 .stab         00000084  00000000  00000000  0005ae24  2**2
                  CONTENTS, READONLY, DEBUGGING
 19 .stabstr      00000117  00000000  00000000  0005aea8  2**0
                  CONTENTS, READONLY, DEBUGGING
SYMBOL TABLE:
00000000 l    d  .init	00000000 .init
00000038 l    d  .vector	00000000 .vector
00000140 l    d  .text	00000000 .text
00006394 l    d  .fini	00000000 .fini
20000000 l    d  .dalign	00000000 .dalign
00006394 l    d  .dlalign	00000000 .dlalign
20000000 l    d  .data	00000000 .data
20000270 l    d  .bss	00000000 .bss
20004800 l    d  .stack	00000000 .stack
00000000 l    d  .debug_info	00000000 .debug_info
00000000 l    d  .debug_abbrev	00000000 .debug_abbrev
00000000 l    d  .debug_aranges	00000000 .debug_aranges
00000000 l    d  .debug_ranges	00000000 .debug_ranges
00000000 l    d  .debug_line	00000000 .debug_line
00000000 l    d  .debug_str	00000000 .debug_str
00000000 l    d  .comment	00000000 .comment
00000000 l    d  .debug_frame	00000000 .debug_frame
00000000 l    d  .debug_loc	00000000 .debug_loc
00000000 l    d  .stab	00000000 .stab
00000000 l    d  .stabstr	00000000 .stabstr
00000000 l    df *ABS*	00000000 ./Startup/startup_ch32v20x_D6.o
00000038 l       .vector	00000000 _vector_base
00000000 l    df *ABS*	00000000 ch32v20x_it.c
00000000 l    df *ABS*	00000000 ch32v20x_usbfs_device.c
00000000 l    df *ABS*	00000000 main.c
00000000 l    df *ABS*	00000000 system_ch32v20x.c
00000000 l    df *ABS*	00000000 app_km.c
00000000 l    df *ABS*	00000000 ch32v20x_usbfs_host.c
0000223c l     F .text	00000032 USBFSH_SetSelfSpeed.part.0
20000204 l     O .data	00000008 SetupClearEndpStall
2000020c l     O .data	00000008 SetupGetCfgDesc
20000214 l     O .data	00000008 SetupGetDevDesc
2000021c l     O .data	00000008 SetupGetStrDesc
20000224 l     O .data	00000008 SetupSetAddr
2000022c l     O .data	00000008 SetupSetConfig
00000000 l    df *ABS*	00000000 usb_host_hid.c
20000234 l     O .data	00000008 SetupGetHidDes
2000023c l     O .data	00000008 SetupSetReport
20000244 l     O .data	00000008 SetupSetidle
00000000 l    df *ABS*	00000000 usb_host_hub.c
2000024c l     O .data	00000008 ClearPortFeature
20000254 l     O .data	00000008 GetHubDescr
2000025c l     O .data	00000008 GetPortStatus
20000264 l     O .data	00000008 SetPortFeature
00000000 l    df *ABS*	00000000 ch32v20x_exti.c
00000000 l    df *ABS*	00000000 ch32v20x_gpio.c
00000000 l    df *ABS*	00000000 ch32v20x_misc.c
00000000 l    df *ABS*	00000000 ch32v20x_rcc.c
20000000 l     O .data	00000010 APBAHBPrescTable
200001e0 l     O .data	00000004 ADCPrescTable
00000000 l    df *ABS*	00000000 ch32v20x_tim.c
00000000 l    df *ABS*	00000000 ch32v20x_usart.c
00000000 l    df *ABS*	00000000 usb_core.c
0000325c l     F .text	000000be DataStageIn
00000000 l    df *ABS*	00000000 usb_init.c
00000000 l    df *ABS*	00000000 usb_int.c
00000000 l    df *ABS*	00000000 usb_mem.c
00000000 l    df *ABS*	00000000 usb_regs.c
00000000 l    df *ABS*	00000000 usb_sil.c
00000000 l    df *ABS*	00000000 hw_config.c
00000000 l    df *ABS*	00000000 usb_endp.c
00000000 l    df *ABS*	00000000 usb_istr.c
00000000 l    df *ABS*	00000000 usb_prop.c
00000000 l    df *ABS*	00000000 usb_pwr.c
00000000 l    df *ABS*	00000000 usbd_composite_km.c
00000000 l    df *ABS*	00000000 debug.c
200002fe l     O .bss	00000002 p_ms
20000300 l     O .bss	00000001 p_us
200001f8 l     O .data	00000004 curbrk.4583
00000000 l    df *ABS*	00000000 malloc.c
00000000 l    df *ABS*	00000000 memchr.c
00000000 l    df *ABS*	00000000 memcpy.c
00000000 l    df *ABS*	00000000 nano-mallocr.c
00000000 l    df *ABS*	00000000 nano-mallocr.c
00000000 l    df *ABS*	00000000 printf.c
00000000 l    df *ABS*	00000000 puts.c
00000000 l    df *ABS*	00000000 sbrkr.c
00000000 l    df *ABS*	00000000 wbuf.c
00000000 l    df *ABS*	00000000 wsetup.c
00000000 l    df *ABS*	00000000 fflush.c
00000000 l    df *ABS*	00000000 findfp.c
0000558e l     F .text	0000006a std
00000000 l    df *ABS*	00000000 fwalk.c
00000000 l    df *ABS*	00000000 makebuf.c
00000000 l    df *ABS*	00000000 mlock.c
00000000 l    df *ABS*	00000000 nano-vfprintf.c
000058c2 l     F .text	0000002a __sfputc_r
00000000 l    df *ABS*	00000000 nano-vfprintf_i.c
00000000 l    df *ABS*	00000000 stdio.c
00000000 l    df *ABS*	00000000 writer.c
00000000 l    df *ABS*	00000000 closer.c
00000000 l    df *ABS*	00000000 fstatr.c
00000000 l    df *ABS*	00000000 isattyr.c
00000000 l    df *ABS*	00000000 lseekr.c
00000000 l    df *ABS*	00000000 readr.c
00000000 l    df *ABS*	00000000 close.c
00000000 l    df *ABS*	00000000 fstat.c
00000000 l    df *ABS*	00000000 isatty.c
00000000 l    df *ABS*	00000000 lseek.c
00000000 l    df *ABS*	00000000 read.c
00000000 l    df *ABS*	00000000 usb_desc.c
00000000 l    df *ABS*	00000000 usb_desc.c
00000000 l    df *ABS*	00000000 impure.c
20000174 l     O .data	00000060 impure_data
00000000 l    df *ABS*	00000000 reent.c
00003fd4 g     F .text	00000042 SetEPRxValid
200002ce g     O .bss	00000002 SaveRState
00002ad0  w      .text	00000000 EXTI2_IRQHandler
000060dc g     F .text	00000030 _isatty_r
00006290 g     O .text	00000016 MySerNumInfo
20000284 g     O .bss	00000002 USBFS_SetupReqValue
200002e4 g     O .bss	00000002 HID_Idle_Value
00005104 g     F .text	000000da _puts_r
200002f8 g     O .bss	00000004 remotewakeupon
0000610c g     F .text	00000034 _lseek_r
00000b02 g     F .text	00000036 GPIO_INIT
000034d6 g     F .text	000000c2 Standard_SetEndPointFeature
200002d3 g     O .bss	00000001 USBD_Endp2_Busy
00003afa g     F .text	00000038 USB_Init
000050c4 g     F .text	00000040 printf
200009d8 g       .data	00000000 __global_pointer$
200002b1 g     O .bss	00000001 KB_Data_State
00000148 g     F .text	00000028 .hidden __riscv_save_8
00002af6  w      .text	00000000 TIM1_CC_IRQHandler
00004192 g     F .text	0000000e ByteSwap
00006008 g     F .text	00000036 __sseek
0000564a g     F .text	0000006c __sinit
0000521c g     F .text	000000c0 __swbuf_r
0000024c g     F .text	00000002 HardFault_Handler
00004a2c g     F .text	0000002a USBD_GetReportDescriptor
00005602 g     F .text	00000048 __sfmoreglue
000058c0 g     F .text	00000002 __malloc_unlock
0000288e g     F .text	00000028 USBFSH_ClearEndpStall
000040ee g     F .text	0000001e GetEPTxAddr
00000194 g     F .text	0000000c .hidden __riscv_restore_3
00001824 g     F .text	00000030 HUB_CheckPortSpeed
00004c82 g     F .text	0000002a USART2_IRQHandler_Real
00002abc  w      .text	00000000 SysTick_Handler
00002d50 g     F .text	000000b8 NVIC_Init
00004a56 g     F .text	00000026 USBD_GetHidDescriptor
00002908 g     F .text	00000048 USBFSH_SendEndpData
00002ac2  w      .text	00000000 PVD_IRQHandler
0000282a g     F .text	0000003c USBFSH_SetUsbAddress
00000180 g     F .text	00000020 .hidden __riscv_restore_10
00004688 g     F .text	00000002 USBD_Status_In
00000248 g     F .text	00000004 NMI_Handler
00002ad2  w      .text	00000000 EXTI3_IRQHandler
00000148 g     F .text	00000028 .hidden __riscv_save_11
0000412c g     F .text	0000001e SetEPTxCount
000041f4 g     F .text	00000010 USBWakeUp_IRQHandler_Real
0000226e g     F .text	00000046 USBFS_RCC_Init
0000425c g     F .text	00000034 Enter_LowPowerMode
0000420a g     F .text	0000000a USB_LP_CAN1_RX0_IRQHandler_Real
20000294 g     O .bss	00000008 Device_Descriptor
00003126 g     F .text	0000000c USART_GetFlagStatus
000060aa g     F .text	00000032 _fstat_r
00002754 g     F .text	00000076 USBFSH_GetConfigDescr
20001308 g     O .bss	00000040 USBFS_RX_Buf
200013c4 g     O .bss	00000004 errno
20000270 g       .bss	00000000 _sbss
00000800 g       *ABS*	00000000 __stack_size
20000280 g     O .bss	00000002 USBFS_SetupReqLen
00004daa g     F .text	0000005c USART_Printf_Init
000043ce g     F .text	00000060 USBD_ENDPx_DataUp
20000d84 g     O .bss	00000532 HostCtl
00000e48 g     F .text	00000048 USBH_AnalyseType
00002866 g     F .text	00000028 USBFSH_SetUsbConfig
200002d4 g     O .bss	00000002 Ep0RxBlks
00003f8c g     F .text	00000048 SetEPTxStatus
20000104 g     O .data	0000001c pEpInt_OUT
00000d30 g     F .text	00000118 TIM3_IRQHandler_Real
00000194 g     F .text	0000000c .hidden __riscv_restore_2
00003598 g     F .text	00000022 Standard_SetDeviceFeature
20000010 g     O .data	00000022 USBD_ConfigDescriptor_KB
000047a0 g     F .text	00000016 HID_Set_Report
00006258 g     O .text	00000012 MyDevDescr
20000058 g     O .data	00000012 USBD_DeviceDescriptor
200002fd g     O .bss	00000001 USART_Recv_Dat
00004e92 g     F .text	000000b6 memcpy
000042c4 g     F .text	0000004c USB_Interrupts_Config
200002ea g     O .bss	00000001 USBD_Sleep_Status
000055f8 g     F .text	0000000a _cleanup_r
00002950 g     F .text	00000034 HID_GetHidDesr
000033ac g     F .text	0000012a Standard_ClearFeature
00002acc  w      .text	00000000 EXTI0_IRQHandler
00002b02  w      .text	00000000 I2C2_EV_IRQHandler
00002fc2 g     F .text	0000001c TIM_Cmd
00002984 g     F .text	0000002c HID_SetReport
000051de g     F .text	0000000c puts
200001d8 g     O .data	00000004 SystemCoreClock
200002dc g     O .bss	00000004 wCNTR
0000311c g     F .text	0000000a USART_ReceiveData
0000360e g     F .text	00000350 Setup0_Process
00004e6e g     F .text	0000000a malloc
00006184 g     F .text	00000010 _fstat
00000038 g       .init	00000000 _einit
2000006c g     O .data	00000040 USBD_KeyRepDesc
00003010 g     F .text	0000000e TIM_ClearITPendingBit
000043c8 g     F .text	00000006 EP2_IN_Callback
00002f06 g     F .text	0000001e RCC_APB2PeriphClockCmd
00000140 g     F .text	00000030 .hidden __riscv_save_12
00002ae4  w      .text	00000000 ADC1_2_IRQHandler
00004016 g     F .text	00000026 ClearEP_KIND
00002c38 g     F .text	000000f8 GPIO_Init
00002aba  w      .text	00000000 Break_Point_Handler
00000180 g     F .text	00000020 .hidden __riscv_restore_11
200002b4 g     O .bss	00000004 NVIC_Priority_Group
00002b06  w      .text	00000000 SPI1_IRQHandler
000030f6 g     F .text	0000001c USART_Cmd
000051ea g     F .text	00000032 _sbrk_r
200002e0 g     O .bss	00000002 wIstr
00002ac4  w      .text	00000000 TAMPER_IRQHandler
00000170 g     F .text	0000000c .hidden __riscv_save_1
20000200 g     O .data	00000004 MyLangDescr
00001854 g     F .text	0000016a USBH_EnumHubPortDevice
00000194 g     F .text	0000000c .hidden __riscv_restore_0
00006140 g     F .text	00000034 _read_r
00000156 g     F .text	0000001a .hidden __riscv_save_7
200002c4 g     O .bss	00000004 pProperty
0000331a g     F .text	00000036 Standard_SetConfiguration
200000c0 g     O .data	00000016 USBD_StringSerial
00002f24 g     F .text	0000001e RCC_APB1PeriphClockCmd
00002ab6  w      .text	00000000 Ecall_M_Mode_Handler
0000621c g     O .text	0000003c MyCfgDescr
20004800 g       .stack	00000000 _heap_end
20000d60 g     O .bss	00000012 DevDesc_Buf
00004214 g     F .text	00000048 Set_USBConfig
200002d8 g     O .bss	00000004 esof_counter
200000e8 g     O .data	0000001c pEpInt_IN
00006194 g     F .text	00000010 _isatty
200002a8 g     O .bss	00000008 KB_Data_Pack
00004d3e g     F .text	00000036 Delay_Us
2000026c g     O .data	00000004 _global_impure_ptr
0000018a g     F .text	00000016 .hidden __riscv_restore_5
00004a02 g     F .text	0000002a USBD_GetStringDescriptor
00002ee8 g     F .text	0000001e RCC_AHBPeriphClockCmd
00002adc  w      .text	00000000 DMA1_Channel4_IRQHandler
00004e44 g     F .text	0000002a _sbrk
200002be g     O .bss	00000001 EPindex
20000120 g     O .data	00000030 Device_Property
0000626c g     O .text	0000000e MyManuInfo
000031be g     F .text	0000009e Standard_GetStatus
200001e8 g     O .data	00000008 Config_Descriptor_MS
200012e8 g     O .bss	00000020 String_Descriptor
00004a9c g     F .text	00000002 USBD_Status_Out
00004048 g     F .text	00000034 ClearDTOG_RX
0000018a g     F .text	00000016 .hidden __riscv_restore_6
00002b0e  w      .text	00000000 USART3_IRQHandler
000047e6 g     F .text	0000005a USBD_init
00002c2e g     F .text	0000000a EXTI_ClearITPendingBit
00002ac6  w      .text	00000000 RTC_IRQHandler
20000271 g     O .bss	00000001 USBFS_DevConfig
200013c8 g       .bss	00000000 _ebss
00003af8 g     F .text	00000002 NOP_Process
00003132 g     F .text	00000044 USART_GetITStatus
200000d8 g     O .data	0000000e USBD_StringVendor
000029e4 g     F .text	00000032 HUB_GetPortStatus
00002ae2  w      .text	00000000 DMA1_Channel7_IRQHandler
000013c2 g     F .text	000000be KM_DealHidReportDesc
00002aea  w      .text	00000000 CAN1_RX1_IRQHandler
00004d14 g     F .text	0000002a Delay_Init
00003350 g     F .text	0000005c Standard_SetInterface
00002a44 g     F .text	0000002e HUB_SetPortFeature
0000414a g     F .text	00000048 SetEPRxCount
0000468a g     F .text	00000010 USBD_Get_Interface_Setting
000041a0 g     F .text	00000020 USB_SIL_Init
200008e0 g     O .bss	00000080 USBFS_EP6_Buf
2000027e g     O .bss	00000002 USBFS_SetupReqIndex
00004a9e g     F .text	0000002a PowerOn
00002afc  w      .text	00000000 TIM4_IRQHandler
00002c12 g     F .text	00000012 EXTI_GetFlagStatus
00000148 g     F .text	00000028 .hidden __riscv_save_9
00002d30 g     F .text	0000001a GPIO_WriteBit
00003b32 g     F .text	000003e4 CTR_LP
2000028c g     O .bss	00000008 Config_Descriptor_KB
20000282 g     O .bss	00000001 USBFS_SetupReqType
000062f8 g     O .text	00000020 __sf_fake_stderr
20000034 g     O .data	00000022 USBD_ConfigDescriptor_MS
00000156 g     F .text	0000001a .hidden __riscv_save_4
00002afe  w      .text	00000000 I2C1_EV_IRQHandler
200002d0 g     O .bss	00000002 SaveTState
00003f5c g     F .text	00000010 SetBTABLE
00002ff4 g     F .text	0000001c TIM_GetITStatus
000002e0 g     F .text	00000822 USBHD_IRQHandler
200012c8 g     O .bss	0000001f RootHubDev
20000274 g     O .bss	00000008 USBFS_Endp_Busy
00000e90 g     F .text	00000170 USBH_EnumRootDevice
00002e22 g     F .text	000000c6 RCC_GetClocksFreq
200012b8 g     O .bss	00000010 Report_Descriptor
20000150 g     O .data	00000024 User_Standard_Requests
00002ae0  w      .text	00000000 DMA1_Channel6_IRQHandler
000058ec g     F .text	00000044 __sfputs_r
00002b1a  w      .text	00000000 UART4_IRQHandler
200001f4 g     O .data	00000004 fSuspendEnabled
00004e78 g     F .text	0000001a memchr
0000301e g     F .text	000000d8 USART_Init
00004f48 g     F .text	000000a8 _free_r
00004ac8 g     F .text	000000be Suspend
00000d2a g     F .text	00000006 TIM3_IRQHandler
00002aca  w      .text	00000000 RCC_IRQHandler
00000170 g     F .text	0000000c .hidden __riscv_save_3
00004310 g     F .text	000000b2 USB_Port_Set
20001388 g     O .bss	0000001c Device_Info
00004840 g     F .text	000001b2 USBD_Reset
00002af4  w      .text	00000000 TIM1_TRG_COM_IRQHandler
000047ce g     F .text	00000018 HID_Get_Protocol
00001224 g     F .text	0000019e KM_AnalyzeHidReportDesc
00002ad6  w      .text	00000000 DMA1_Channel1_IRQHandler
20000d74 g     O .bss	00000010 Hid_Descriptor
00003176 g     F .text	00000024 Standard_GetConfiguration
00000000 g       .init	00000000 _start
00002c24 g     F .text	0000000a EXTI_ClearFlag
0000464a g     F .text	00000012 USBD_SetConfiguration
000061a4 g     F .text	00000010 _lseek
200002c8 g     O .bss	00000004 pUser_Standard_Requests
20000960 g     O .bss	00000400 Com_Buf
000041c0 g     F .text	0000002e USB_SIL_Write
00002b10  w      .text	00000000 EXTI15_10_IRQHandler
00002fde g     F .text	00000016 TIM_ITConfig
00004a7c g     F .text	00000020 USBD_GetConfigDescriptor
00002ba8 g     F .text	0000006a EXTI_Init
0000474c g     F .text	00000054 USBD_NoData_Setup
2000027c g     O .bss	00000001 USBFS_SetupReqCode
000016e2 g     F .text	0000008e HUB_Port_PreEnum1
00001a60 g     F .text	00000176 USBH_EnumHidDevice
00003a44 g     F .text	0000004a SetDeviceAddress
00002b1c  w      .text	00000000 DMA1_Channel8_IRQHandler
00003f3e g     F .text	0000001e PMAToUserBufferCopy
000040cc g     F .text	00000022 SetEPRxAddr
200002d6 g     O .bss	00000001 bIntPackSOF
20000272 g     O .bss	00000001 USBFS_DevEnumStatus
0000607a g     F .text	00000030 _close_r
20000000 g       .dalign	00000000 _data_vma
00003a8e g     F .text	0000006a In0_Process
00004b86 g     F .text	0000002c Resume_Init
200002b2 g     O .bss	00000001 MCU_Version
0000236c g     F .text	0000003a USBFSH_SetSelfSpeed
200002e8 g     O .bss	00000002 HID_Protocol_Value
000052dc g     F .text	0000010e __swsetup_r
00001bd6 g     F .text	00000666 USBH_MainDeal
00002aee  w      .text	00000000 EXTI9_5_IRQHandler
000056b6 g     F .text	000000a0 __sfp
20000270 g     O .bss	00000001 USBFS_DevAddr
00000148 g     F .text	00000028 .hidden __riscv_save_10
00005f8a g     F .text	00000030 __sread
200002bc g     O .bss	00000002 StatusInfo
200002c0 g     O .bss	00000004 pInformation
00003f6c g     F .text	00000020 SetEPType
000058be g     F .text	00000002 __malloc_lock
0000018a g     F .text	00000016 .hidden __riscv_restore_4
00004664 g     F .text	00000012 USBD_SetDeviceFeature
00000180 g     F .text	00000020 .hidden __riscv_restore_8
200002ec g     O .bss	00000008 ResumeS
00005528 g     F .text	00000066 _fflush_r
00000156 g     F .text	0000001a .hidden __riscv_save_6
000047b6 g     F .text	00000018 HID_Get_Idle
00002b08  w      .text	00000000 SPI2_IRQHandler
00006318 g     O .text	00000020 __sf_fake_stdin
000001a0 g     F .text	000000a8 memset
00000180 g     F .text	00000020 .hidden __riscv_restore_9
0000018a g     F .text	00000016 .hidden __riscv_restore_7
00000b38 g     F .text	0000008e main
00000cb0 g     F .text	0000007a TIM3_Init
0000319a g     F .text	00000024 Standard_GetInterface
0000603e g     F .text	00000006 __sclose
00002404 g     F .text	0000004a USBFSH_EnableRootHubPort
00004ff0 g     F .text	000000d4 _malloc_r
20000273 g     O .bss	00000001 USBFS_DevSleepStatus
00002ade  w      .text	00000000 DMA1_Channel5_IRQHandler
00002e08 g     F .text	0000001a RCC_USBCLKConfig
00002ad4  w      .text	00000000 EXTI4_IRQHandler
00004d74 g     F .text	00000036 Delay_Ms
00004204 g     F .text	00000006 USB_LP_CAN1_RX0_IRQHandler
0000627c g     O .text	00000012 MyProdInfo
200002a4 g     O .bss	00000001 KB_Data_Buffer_Full
000027ca g     F .text	00000060 USBFSH_GetStrDescr
0000024e g     F .text	00000092 USBFS_Device_Endp_Init
00000bc6 g     F .text	000000ea SystemInit
000050c4 g     F .text	00000040 iprintf
00002ae6  w      .text	00000000 USB_HP_CAN1_TX_IRQHandler
00000000 g       .init	00000000 _sinit
20001348 g     O .bss	00000040 USBFS_TX_Buf
00001000 g     F .text	00000224 KM_AnalyzeConfigDesc
00002b18  w      .text	00000000 USBHDWakeUp_IRQHandler
2000029c g     O .bss	00000008 KB_Data_Buffer
00006044 g     F .text	00000036 _write_r
00002ada  w      .text	00000000 DMA1_Channel3_IRQHandler
00005bd2 g     F .text	0000010c _printf_common
200001fc g     O .data	00000004 _impure_ptr
00002af2  w      .text	00000000 TIM1_UP_IRQHandler
000053ea g     F .text	0000013e __sflush_r
000035ba g     F .text	0000001e Standard_GetDescriptorData
00002708 g     F .text	0000004c USBFSH_GetDeviceDescr
00004676 g     F .text	00000012 USBD_ClearFeature
0000395e g     F .text	000000e6 Out0_Process
000028b6 g     F .text	00000052 USBFSH_GetEndpData
00002ac0  w      .text	00000000 WWDG_IRQHandler
200002b0 g     O .bss	00000001 KB_Data_Pack_Full
2000070c g     O .bss	00000014 RingBuffer_Comm
00002a16 g     F .text	0000002e HUB_ClearPortFeature
00002ab8  w      .text	00000000 Ecall_U_Mode_Handler
000043c2 g     F .text	00000006 EP1_IN_Callback
00004290 g     F .text	00000034 Leave_LowPowerMode
00002af8  w      .text	00000000 TIM2_IRQHandler
20005000 g       .stack	00000000 _eusrstack
00000170 g     F .text	0000000c .hidden __riscv_save_2
00002342 g     F .text	00000012 USBFSH_CheckRootHubPortSpeed
00002abe  w      .text	00000000 SW_Handler
00002a72 g     F .text	00000040 HUB_GetClassDevDescr
00001480 g     F .text	000000cc HUB_AnalyzeConfigDesc
00002af0  w      .text	00000000 TIM1_BRK_IRQHandler
000057c2 g     F .text	0000005a __swhatbuf_r
00003112 g     F .text	0000000a USART_SendData
0000230c g     F .text	00000036 USBFSH_CheckRootHubPortStatus
00002ace  w      .text	00000000 EXTI1_IRQHandler
0000465c g     F .text	00000008 USBD_SetDeviceAddress
200001e4 g     O .data	00000004 USBD_StringLangID
00000156 g     F .text	0000001a .hidden __riscv_save_5
00004e06 g     F .text	0000003e _write
200002b8 g     O .bss	00000004 Data_Mul_MaxPacketSize
20000720 g     O .bss	00000040 USBFS_EP0_Buf
20000270 g       .data	00000000 _edata
20000288 g     O .bss	00000004 pUSBFS_Descr
200013c8 g       .bss	00000000 _end
200002fc g     O .bss	00000001 KB_LED_Cur_Status
000035d8 g     F .text	00000036 Post0_Process
00002f42 g     F .text	00000080 TIM_TimeBaseInit
00002b12  w      .text	00000000 RTCAlarm_IRQHandler
0000442e g     F .text	0000021c USB_Istr
00001770 g     F .text	000000b4 HUB_Port_PreEnum2
00006394 g       .dlalign	00000000 _data_lma
000022b4 g     F .text	00000058 USBFS_Host_Init
000029b0 g     F .text	00000034 HID_SetIdle
200002d2 g     O .bss	00000001 USBD_Endp1_Busy
00004c7c g     F .text	00000006 USART2_IRQHandler
00005fba g     F .text	0000004e __swrite
000023a6 g     F .text	0000005e USBFSH_ResetRootHubPort
00005930 g     F .text	000002a2 _vfiprintf_r
00005756 g     F .text	0000006c _fwalk_reent
0000407c g     F .text	00000030 ClearDTOG_TX
200013a4 g     O .bss	00000020 EP
000040ac g     F .text	00000020 SetEPTxAddr
00002b04  w      .text	00000000 I2C2_ER_IRQHandler
000019be g     F .text	000000a2 KB_SetReport
00002ad8  w      .text	00000000 DMA1_Channel2_IRQHandler
00006338 g     O .text	00000020 __sf_fake_stdout
0000017c g     F .text	00000024 .hidden __riscv_restore_12
200000ac g     O .data	00000012 USBD_StringProduct
000061b4 g     F .text	00000010 _read
00002b1e  w      .text	00000000 handle_reset
0000403c g     F .text	0000000c Clear_Status_Out
00002aec  w      .text	00000000 CAN1_SCE_IRQHandler
000049f2 g     F .text	00000010 USBD_GetDeviceDescriptor
00002ac8  w      .text	00000000 FLASH_IRQHandler
00000170 g     F .text	0000000c .hidden __riscv_save_0
2000030c g     O .bss	00000400 Data_Buffer
0000154c g     F .text	00000196 USBH_EnumHubDevice
00003f16 g     F .text	00000028 UserToPMABufferCopy
00002b0a  w      .text	00000000 USART1_IRQHandler
0000581c g     F .text	000000a2 __smakebuf_r
00005cde g     F .text	000002ac _printf_i
00004cac g     F .text	00000068 MCU_Sleep_Wakeup_Operate
20000308 g     O .bss	00000004 __malloc_sbrk_start
00002354 g     F .text	00000018 USBFSH_SetSelfAddr
00002b00  w      .text	00000000 I2C1_ER_IRQHandler
20000760 g     O .bss	00000080 USBFS_EP3_Buf
00002d4a g     F .text	00000006 NVIC_PriorityGroupConfig
200002f4 g     O .bss	00000004 bDeviceState
0000244e g     F .text	00000102 USBFSH_Transact
200001dc g     O .data	00000001 new_descripter
00004bb2 g     F .text	000000ca Resume
200001f0 g     O .data	00000002 Device_Table
20000304 g     O .bss	00000004 __malloc_free_list
00000194 g     F .text	0000000c .hidden __riscv_restore_1
00005930 g     F .text	000002a2 _vfprintf_r
200007e0 g     O .bss	00000080 USBFS_EP4_Buf
0000469a g     F .text	000000b2 USBD_Data_Setup
200002cc g     O .bss	00000002 wInterrupt_Mask
20000860 g     O .bss	00000080 USBFS_EP5_Buf
0000410c g     F .text	00000020 GetEPRxAddr
000041ee g     F .text	00000006 USBWakeUp_IRQHandler
00006174 g     F .text	00000010 _close
00002550 g     F .text	000001b8 USBFSH_CtrlTransfer



Disassembly of section .init:

00000000 <_sinit>:
   0:	31f0206f          	j	2b1e <handle_reset>
   4:	00000013          	nop
   8:	00000013          	nop
   c:	00000013          	nop
  10:	00000013          	nop
  14:	00000013          	nop
  18:	00000013          	nop
  1c:	00000013          	nop
  20:	00000013          	nop
  24:	00000013          	nop
  28:	00000013          	nop
  2c:	00000013          	nop
  30:	00000013          	nop
  34:	00100073          	ebreak

Disassembly of section .vector:

00000038 <_vector_base>:
	...
  40:	0248                	addi	a0,sp,260
  42:	0000                	unimp
  44:	024c                	addi	a1,sp,260
  46:	0000                	unimp
  48:	0000                	unimp
  4a:	0000                	unimp
  4c:	2ab6                	fld	fs5,328(sp)
	...
  56:	0000                	unimp
  58:	2ab8                	fld	fa4,80(a3)
  5a:	0000                	unimp
  5c:	2aba                	fld	fs5,392(sp)
	...
  66:	0000                	unimp
  68:	2abc                	fld	fa5,80(a3)
  6a:	0000                	unimp
  6c:	0000                	unimp
  6e:	0000                	unimp
  70:	2abe                	fld	fs5,456(sp)
  72:	0000                	unimp
  74:	0000                	unimp
  76:	0000                	unimp
  78:	2ac0                	fld	fs0,144(a3)
  7a:	0000                	unimp
  7c:	2ac2                	fld	fs5,16(sp)
  7e:	0000                	unimp
  80:	2ac4                	fld	fs1,144(a3)
  82:	0000                	unimp
  84:	2ac6                	fld	fs5,80(sp)
  86:	0000                	unimp
  88:	2ac8                	fld	fa0,144(a3)
  8a:	0000                	unimp
  8c:	2aca                	fld	fs5,144(sp)
  8e:	0000                	unimp
  90:	2acc                	fld	fa1,144(a3)
  92:	0000                	unimp
  94:	2ace                	fld	fs5,208(sp)
  96:	0000                	unimp
  98:	2ad0                	fld	fa2,144(a3)
  9a:	0000                	unimp
  9c:	2ad2                	fld	fs5,272(sp)
  9e:	0000                	unimp
  a0:	2ad4                	fld	fa3,144(a3)
  a2:	0000                	unimp
  a4:	2ad6                	fld	fs5,336(sp)
  a6:	0000                	unimp
  a8:	2ad8                	fld	fa4,144(a3)
  aa:	0000                	unimp
  ac:	2ada                	fld	fs5,400(sp)
  ae:	0000                	unimp
  b0:	2adc                	fld	fa5,144(a3)
  b2:	0000                	unimp
  b4:	2ade                	fld	fs5,464(sp)
  b6:	0000                	unimp
  b8:	2ae0                	fld	fs0,208(a3)
  ba:	0000                	unimp
  bc:	2ae2                	fld	fs5,24(sp)
  be:	0000                	unimp
  c0:	2ae4                	fld	fs1,208(a3)
  c2:	0000                	unimp
  c4:	2ae6                	fld	fs5,88(sp)
  c6:	0000                	unimp
  c8:	4204                	lw	s1,0(a2)
  ca:	0000                	unimp
  cc:	2aea                	fld	fs5,152(sp)
  ce:	0000                	unimp
  d0:	2aec                	fld	fa1,208(a3)
  d2:	0000                	unimp
  d4:	2aee                	fld	fs5,216(sp)
  d6:	0000                	unimp
  d8:	2af0                	fld	fa2,208(a3)
  da:	0000                	unimp
  dc:	2af2                	fld	fs5,280(sp)
  de:	0000                	unimp
  e0:	2af4                	fld	fa3,208(a3)
  e2:	0000                	unimp
  e4:	2af6                	fld	fs5,344(sp)
  e6:	0000                	unimp
  e8:	2af8                	fld	fa4,208(a3)
  ea:	0000                	unimp
  ec:	0d2a                	slli	s10,s10,0xa
  ee:	0000                	unimp
  f0:	2afc                	fld	fa5,208(a3)
  f2:	0000                	unimp
  f4:	2afe                	fld	fs5,472(sp)
  f6:	0000                	unimp
  f8:	2b00                	fld	fs0,16(a4)
  fa:	0000                	unimp
  fc:	2b02                	fld	fs6,0(sp)
  fe:	0000                	unimp
 100:	2b04                	fld	fs1,16(a4)
 102:	0000                	unimp
 104:	2b06                	fld	fs6,64(sp)
 106:	0000                	unimp
 108:	2b08                	fld	fa0,16(a4)
 10a:	0000                	unimp
 10c:	2b0a                	fld	fs6,128(sp)
 10e:	0000                	unimp
 110:	4c7c                	lw	a5,92(s0)
 112:	0000                	unimp
 114:	2b0e                	fld	fs6,192(sp)
 116:	0000                	unimp
 118:	2b10                	fld	fa2,16(a4)
 11a:	0000                	unimp
 11c:	2b12                	fld	fs6,256(sp)
 11e:	0000                	unimp
 120:	41ee                	lw	gp,216(sp)
 122:	0000                	unimp
 124:	02e0                	addi	s0,sp,332
 126:	0000                	unimp
 128:	2b18                	fld	fa4,16(a4)
 12a:	0000                	unimp
 12c:	2b1a                	fld	fs6,384(sp)
 12e:	0000                	unimp
 130:	2b1c                	fld	fa5,16(a4)
	...

Disassembly of section .text:

00000140 <__riscv_save_12>:
     140:	7139                	addi	sp,sp,-64
     142:	4301                	li	t1,0
     144:	c66e                	sw	s11,12(sp)
     146:	a019                	j	14c <__riscv_save_10+0x4>

00000148 <__riscv_save_10>:
     148:	7139                	addi	sp,sp,-64
     14a:	5341                	li	t1,-16
     14c:	c86a                	sw	s10,16(sp)
     14e:	ca66                	sw	s9,20(sp)
     150:	cc62                	sw	s8,24(sp)
     152:	ce5e                	sw	s7,28(sp)
     154:	a019                	j	15a <__riscv_save_4+0x4>

00000156 <__riscv_save_4>:
     156:	7139                	addi	sp,sp,-64
     158:	5301                	li	t1,-32
     15a:	d05a                	sw	s6,32(sp)
     15c:	d256                	sw	s5,36(sp)
     15e:	d452                	sw	s4,40(sp)
     160:	d64e                	sw	s3,44(sp)
     162:	d84a                	sw	s2,48(sp)
     164:	da26                	sw	s1,52(sp)
     166:	dc22                	sw	s0,56(sp)
     168:	de06                	sw	ra,60(sp)
     16a:	40610133          	sub	sp,sp,t1
     16e:	8282                	jr	t0

00000170 <__riscv_save_0>:
     170:	1141                	addi	sp,sp,-16
     172:	c04a                	sw	s2,0(sp)
     174:	c226                	sw	s1,4(sp)
     176:	c422                	sw	s0,8(sp)
     178:	c606                	sw	ra,12(sp)
     17a:	8282                	jr	t0

0000017c <__riscv_restore_12>:
     17c:	4db2                	lw	s11,12(sp)
     17e:	0141                	addi	sp,sp,16

00000180 <__riscv_restore_10>:
     180:	4d02                	lw	s10,0(sp)
     182:	4c92                	lw	s9,4(sp)
     184:	4c22                	lw	s8,8(sp)
     186:	4bb2                	lw	s7,12(sp)
     188:	0141                	addi	sp,sp,16

0000018a <__riscv_restore_4>:
     18a:	4b02                	lw	s6,0(sp)
     18c:	4a92                	lw	s5,4(sp)
     18e:	4a22                	lw	s4,8(sp)
     190:	49b2                	lw	s3,12(sp)
     192:	0141                	addi	sp,sp,16

00000194 <__riscv_restore_0>:
     194:	4902                	lw	s2,0(sp)
     196:	4492                	lw	s1,4(sp)
     198:	4422                	lw	s0,8(sp)
     19a:	40b2                	lw	ra,12(sp)
     19c:	0141                	addi	sp,sp,16
     19e:	8082                	ret

000001a0 <memset>:
     1a0:	433d                	li	t1,15
     1a2:	872a                	mv	a4,a0
     1a4:	02c37363          	bgeu	t1,a2,1ca <memset+0x2a>
     1a8:	00f77793          	andi	a5,a4,15
     1ac:	efbd                	bnez	a5,22a <memset+0x8a>
     1ae:	e5ad                	bnez	a1,218 <memset+0x78>
     1b0:	ff067693          	andi	a3,a2,-16
     1b4:	8a3d                	andi	a2,a2,15
     1b6:	96ba                	add	a3,a3,a4
     1b8:	c30c                	sw	a1,0(a4)
     1ba:	c34c                	sw	a1,4(a4)
     1bc:	c70c                	sw	a1,8(a4)
     1be:	c74c                	sw	a1,12(a4)
     1c0:	0741                	addi	a4,a4,16
     1c2:	fed76be3          	bltu	a4,a3,1b8 <memset+0x18>
     1c6:	e211                	bnez	a2,1ca <memset+0x2a>
     1c8:	8082                	ret
     1ca:	40c306b3          	sub	a3,t1,a2
     1ce:	068a                	slli	a3,a3,0x2
     1d0:	00000297          	auipc	t0,0x0
     1d4:	9696                	add	a3,a3,t0
     1d6:	00a68067          	jr	10(a3)
     1da:	00b70723          	sb	a1,14(a4)
     1de:	00b706a3          	sb	a1,13(a4)
     1e2:	00b70623          	sb	a1,12(a4)
     1e6:	00b705a3          	sb	a1,11(a4)
     1ea:	00b70523          	sb	a1,10(a4)
     1ee:	00b704a3          	sb	a1,9(a4)
     1f2:	00b70423          	sb	a1,8(a4)
     1f6:	00b703a3          	sb	a1,7(a4)
     1fa:	00b70323          	sb	a1,6(a4)
     1fe:	00b702a3          	sb	a1,5(a4)
     202:	00b70223          	sb	a1,4(a4)
     206:	00b701a3          	sb	a1,3(a4)
     20a:	00b70123          	sb	a1,2(a4)
     20e:	00b700a3          	sb	a1,1(a4)
     212:	00b70023          	sb	a1,0(a4)
     216:	8082                	ret
     218:	0ff5f593          	andi	a1,a1,255
     21c:	00859693          	slli	a3,a1,0x8
     220:	8dd5                	or	a1,a1,a3
     222:	01059693          	slli	a3,a1,0x10
     226:	8dd5                	or	a1,a1,a3
     228:	b761                	j	1b0 <memset+0x10>
     22a:	00279693          	slli	a3,a5,0x2
     22e:	00000297          	auipc	t0,0x0
     232:	9696                	add	a3,a3,t0
     234:	8286                	mv	t0,ra
     236:	fa8680e7          	jalr	-88(a3)
     23a:	8096                	mv	ra,t0
     23c:	17c1                	addi	a5,a5,-16
     23e:	8f1d                	sub	a4,a4,a5
     240:	963e                	add	a2,a2,a5
     242:	f8c374e3          	bgeu	t1,a2,1ca <memset+0x2a>
     246:	b7a5                	j	1ae <memset+0xe>

00000248 <NMI_Handler>:
     248:	30200073          	mret

0000024c <HardFault_Handler>:
     24c:	a001                	j	24c <HardFault_Handler>

0000024e <USBFS_Device_Endp_Init>:
     24e:	500007b7          	lui	a5,0x50000
     252:	f8400713          	li	a4,-124
     256:	00e78623          	sb	a4,12(a5) # 5000000c <_eusrstack+0x2fffb00c>
     25a:	00e786a3          	sb	a4,13(a5)
     25e:	04800713          	li	a4,72
     262:	00e78723          	sb	a4,14(a5)
     266:	d4818713          	addi	a4,gp,-696 # 20000720 <USBFS_EP0_Buf>
     26a:	cb98                	sw	a4,16(a5)
     26c:	93418713          	addi	a4,gp,-1740 # 2000030c <Data_Buffer>
     270:	cbd8                	sw	a4,20(a5)
     272:	cf98                	sw	a4,24(a5)
     274:	d8818713          	addi	a4,gp,-632 # 20000760 <USBFS_EP3_Buf>
     278:	cfd8                	sw	a4,28(a5)
     27a:	e0818713          	addi	a4,gp,-504 # 200007e0 <USBFS_EP4_Buf>
     27e:	d398                	sw	a4,32(a5)
     280:	e8818713          	addi	a4,gp,-376 # 20000860 <USBFS_EP5_Buf>
     284:	d3d8                	sw	a4,36(a5)
     286:	f0818713          	addi	a4,gp,-248 # 200008e0 <USBFS_EP6_Buf>
     28a:	d798                	sw	a4,40(a5)
     28c:	020789a3          	sb	zero,51(a5)
     290:	02078ba3          	sb	zero,55(a5)
     294:	02078fa3          	sb	zero,63(a5)
     298:	040783a3          	sb	zero,71(a5)
     29c:	02079c23          	sh	zero,56(a5)
     2a0:	04079023          	sh	zero,64(a5)
     2a4:	04079423          	sh	zero,72(a5)
     2a8:	4709                	li	a4,2
     2aa:	02e78923          	sb	a4,50(a5)
     2ae:	02e78d23          	sb	a4,58(a5)
     2b2:	04e78123          	sb	a4,66(a5)
     2b6:	04e78523          	sb	a4,74(a5)
     2ba:	89c18793          	addi	a5,gp,-1892 # 20000274 <USBFS_Endp_Busy>
     2be:	00078023          	sb	zero,0(a5)
     2c2:	000780a3          	sb	zero,1(a5)
     2c6:	00078123          	sb	zero,2(a5)
     2ca:	000781a3          	sb	zero,3(a5)
     2ce:	00078223          	sb	zero,4(a5)
     2d2:	000782a3          	sb	zero,5(a5)
     2d6:	00078323          	sb	zero,6(a5)
     2da:	000783a3          	sb	zero,7(a5)
     2de:	8082                	ret

000002e0 <USBHD_IRQHandler>:
     2e0:	1101                	addi	sp,sp,-32
     2e2:	ce22                	sw	s0,28(sp)
     2e4:	cc26                	sw	s1,24(sp)
     2e6:	ca4a                	sw	s2,20(sp)
     2e8:	c84e                	sw	s3,16(sp)
     2ea:	c652                	sw	s4,12(sp)
     2ec:	c456                	sw	s5,8(sp)
     2ee:	50000437          	lui	s0,0x50000
     2f2:	00644703          	lbu	a4,6(s0) # 50000006 <_eusrstack+0x2fffb006>
     2f6:	00744783          	lbu	a5,7(s0)
     2fa:	0ff77713          	andi	a4,a4,255
     2fe:	00277693          	andi	a3,a4,2
     302:	78068e63          	beqz	a3,a9e <__stack_size+0x29e>
     306:	0ff7f793          	andi	a5,a5,255
     30a:	0307f713          	andi	a4,a5,48
     30e:	02000693          	li	a3,32
     312:	06d70d63          	beq	a4,a3,38c <USBHD_IRQHandler+0xac>
     316:	03000693          	li	a3,48
     31a:	30d70363          	beq	a4,a3,620 <USBHD_IRQHandler+0x340>
     31e:	e349                	bnez	a4,3a0 <USBHD_IRQHandler+0xc0>
     320:	03f7f713          	andi	a4,a5,63
     324:	4685                	li	a3,1
     326:	1ed70563          	beq	a4,a3,510 <USBHD_IRQHandler+0x230>
     32a:	1c070063          	beqz	a4,4ea <USBHD_IRQHandler+0x20a>
     32e:	468d                	li	a3,3
     330:	26d70663          	beq	a4,a3,59c <USBHD_IRQHandler+0x2bc>
     334:	4695                	li	a3,5
     336:	06d71563          	bne	a4,a3,3a0 <USBHD_IRQHandler+0xc0>
     33a:	0407f793          	andi	a5,a5,64
     33e:	c3ad                	beqz	a5,3a0 <USBHD_IRQHandler+0xc0>
     340:	4418                	lw	a4,8(s0)
     342:	04744783          	lbu	a5,71(s0)
     346:	0742                	slli	a4,a4,0x10
     348:	0047c793          	xori	a5,a5,4
     34c:	04f403a3          	sb	a5,71(s0)
     350:	04744783          	lbu	a5,71(s0)
     354:	8341                	srli	a4,a4,0x10
     356:	0fc7f793          	andi	a5,a5,252
     35a:	0027e793          	ori	a5,a5,2
     35e:	04f403a3          	sb	a5,71(s0)
     362:	f0818693          	addi	a3,gp,-248 # 200008e0 <USBFS_EP6_Buf>
     366:	4781                	li	a5,0
     368:	e8818613          	addi	a2,gp,-376 # 20000860 <USBFS_EP5_Buf>
     36c:	01079593          	slli	a1,a5,0x10
     370:	81c1                	srli	a1,a1,0x10
     372:	28e5eb63          	bltu	a1,a4,608 <USBHD_IRQHandler+0x328>
     376:	500007b7          	lui	a5,0x50000
     37a:	04e79423          	sh	a4,72(a5) # 50000048 <_eusrstack+0x2fffb048>
     37e:	0427c703          	lbu	a4,66(a5)
     382:	0fc77713          	andi	a4,a4,252
     386:	04e78523          	sb	a4,74(a5)
     38a:	a819                	j	3a0 <USBHD_IRQHandler+0xc0>
     38c:	03f7f793          	andi	a5,a5,63
     390:	02200693          	li	a3,34
     394:	0ed78f63          	beq	a5,a3,492 <USBHD_IRQHandler+0x1b2>
     398:	00f6ea63          	bltu	a3,a5,3ac <USBHD_IRQHandler+0xcc>
     39c:	04e78963          	beq	a5,a4,3ee <USBHD_IRQHandler+0x10e>
     3a0:	500007b7          	lui	a5,0x50000
     3a4:	4709                	li	a4,2
     3a6:	00e78323          	sb	a4,6(a5) # 50000006 <_eusrstack+0x2fffb006>
     3aa:	a721                	j	ab2 <__stack_size+0x2b2>
     3ac:	02400713          	li	a4,36
     3b0:	10e78463          	beq	a5,a4,4b8 <USBHD_IRQHandler+0x1d8>
     3b4:	02600713          	li	a4,38
     3b8:	fee794e3          	bne	a5,a4,3a0 <USBHD_IRQHandler+0xc0>
     3bc:	04a44783          	lbu	a5,74(s0)
     3c0:	0047c793          	xori	a5,a5,4
     3c4:	04f40523          	sb	a5,74(s0)
     3c8:	04a44783          	lbu	a5,74(s0)
     3cc:	0fc7f793          	andi	a5,a5,252
     3d0:	0027e793          	ori	a5,a5,2
     3d4:	04f40523          	sb	a5,74(s0)
     3d8:	89c18793          	addi	a5,gp,-1892 # 20000274 <USBFS_Endp_Busy>
     3dc:	00078323          	sb	zero,6(a5)
     3e0:	04744783          	lbu	a5,71(s0)
     3e4:	0fc7f793          	andi	a5,a5,252
     3e8:	04f403a3          	sb	a5,71(s0)
     3ec:	bf55                	j	3a0 <USBHD_IRQHandler+0xc0>
     3ee:	8a818793          	addi	a5,gp,-1880 # 20000280 <USBFS_SetupReqLen>
     3f2:	0007d783          	lhu	a5,0(a5)
     3f6:	8a818493          	addi	s1,gp,-1880 # 20000280 <USBFS_SetupReqLen>
     3fa:	07c2                	slli	a5,a5,0x10
     3fc:	83c1                	srli	a5,a5,0x10
     3fe:	e781                	bnez	a5,406 <USBHD_IRQHandler+0x126>
     400:	4791                	li	a5,4
     402:	02f409a3          	sb	a5,51(s0)
     406:	8aa1c783          	lbu	a5,-1878(gp) # 20000282 <USBFS_SetupReqType>
     40a:	0607f793          	andi	a5,a5,96
     40e:	fbc9                	bnez	a5,3a0 <USBHD_IRQHandler+0xc0>
     410:	8a41c783          	lbu	a5,-1884(gp) # 2000027c <USBFS_SetupReqCode>
     414:	4715                	li	a4,5
     416:	0ff7f793          	andi	a5,a5,255
     41a:	06e78063          	beq	a5,a4,47a <USBHD_IRQHandler+0x19a>
     41e:	4719                	li	a4,6
     420:	f8e790e3          	bne	a5,a4,3a0 <USBHD_IRQHandler+0xc0>
     424:	0004d783          	lhu	a5,0(s1)
     428:	03f00713          	li	a4,63
     42c:	04000413          	li	s0,64
     430:	00f76663          	bltu	a4,a5,43c <USBHD_IRQHandler+0x15c>
     434:	0004d403          	lhu	s0,0(s1)
     438:	0442                	slli	s0,s0,0x10
     43a:	8041                	srli	s0,s0,0x10
     43c:	8b018913          	addi	s2,gp,-1872 # 20000288 <pUSBFS_Descr>
     440:	00092983          	lw	s3,0(s2)
     444:	8622                	mv	a2,s0
     446:	85ce                	mv	a1,s3
     448:	d4818513          	addi	a0,gp,-696 # 20000720 <USBFS_EP0_Buf>
     44c:	247040ef          	jal	ra,4e92 <memcpy>
     450:	0004d783          	lhu	a5,0(s1)
     454:	99a2                	add	s3,s3,s0
     456:	01392023          	sw	s3,0(s2)
     45a:	8f81                	sub	a5,a5,s0
     45c:	07c2                	slli	a5,a5,0x10
     45e:	83c1                	srli	a5,a5,0x10
     460:	00f49023          	sh	a5,0(s1)
     464:	500007b7          	lui	a5,0x50000
     468:	02879823          	sh	s0,48(a5) # 50000030 <_eusrstack+0x2fffb030>
     46c:	0327c703          	lbu	a4,50(a5)
     470:	00474713          	xori	a4,a4,4
     474:	02e78923          	sb	a4,50(a5)
     478:	b725                	j	3a0 <USBHD_IRQHandler+0xc0>
     47a:	50000737          	lui	a4,0x50000
     47e:	00374783          	lbu	a5,3(a4) # 50000003 <_eusrstack+0x2fffb003>
     482:	8981c683          	lbu	a3,-1896(gp) # 20000270 <_edata>
     486:	0807f793          	andi	a5,a5,128
     48a:	8fd5                	or	a5,a5,a3
     48c:	00f701a3          	sb	a5,3(a4)
     490:	bf01                	j	3a0 <USBHD_IRQHandler+0xc0>
     492:	03a44783          	lbu	a5,58(s0)
     496:	0047c793          	xori	a5,a5,4
     49a:	02f40d23          	sb	a5,58(s0)
     49e:	03a44783          	lbu	a5,58(s0)
     4a2:	0fc7f793          	andi	a5,a5,252
     4a6:	0027e793          	ori	a5,a5,2
     4aa:	02f40d23          	sb	a5,58(s0)
     4ae:	89c18793          	addi	a5,gp,-1892 # 20000274 <USBFS_Endp_Busy>
     4b2:	00078123          	sb	zero,2(a5)
     4b6:	b5ed                	j	3a0 <USBHD_IRQHandler+0xc0>
     4b8:	04244783          	lbu	a5,66(s0)
     4bc:	0047c793          	xori	a5,a5,4
     4c0:	04f40123          	sb	a5,66(s0)
     4c4:	04244783          	lbu	a5,66(s0)
     4c8:	0fc7f793          	andi	a5,a5,252
     4cc:	0027e793          	ori	a5,a5,2
     4d0:	04f40123          	sb	a5,66(s0)
     4d4:	89c18793          	addi	a5,gp,-1892 # 20000274 <USBFS_Endp_Busy>
     4d8:	00078223          	sb	zero,4(a5)
     4dc:	03f44783          	lbu	a5,63(s0)
     4e0:	0fc7f793          	andi	a5,a5,252
     4e4:	02f40fa3          	sb	a5,63(s0)
     4e8:	bd65                	j	3a0 <USBHD_IRQHandler+0xc0>
     4ea:	4418                	lw	a4,8(s0)
     4ec:	0407f793          	andi	a5,a5,64
     4f0:	ea0788e3          	beqz	a5,3a0 <USBHD_IRQHandler+0xc0>
     4f4:	8aa1c783          	lbu	a5,-1878(gp) # 20000282 <USBFS_SetupReqType>
     4f8:	8a81d783          	lhu	a5,-1880(gp) # 20000280 <USBFS_SetupReqLen>
     4fc:	07c2                	slli	a5,a5,0x10
     4fe:	83c1                	srli	a5,a5,0x10
     500:	ea0790e3          	bnez	a5,3a0 <USBHD_IRQHandler+0xc0>
     504:	02041823          	sh	zero,48(s0)
     508:	4791                	li	a5,4
     50a:	02f40923          	sb	a5,50(s0)
     50e:	bd49                	j	3a0 <USBHD_IRQHandler+0xc0>
     510:	0407f793          	andi	a5,a5,64
     514:	e80786e3          	beqz	a5,3a0 <USBHD_IRQHandler+0xc0>
     518:	03744783          	lbu	a5,55(s0)
     51c:	0047c793          	xori	a5,a5,4
     520:	02f40ba3          	sb	a5,55(s0)
     524:	d3418713          	addi	a4,gp,-716 # 2000070c <RingBuffer_Comm>
     528:	4410                	lw	a2,8(s0)
     52a:	00074683          	lbu	a3,0(a4)
     52e:	d3418793          	addi	a5,gp,-716 # 2000070c <RingBuffer_Comm>
     532:	0ff67613          	andi	a2,a2,255
     536:	96ba                	add	a3,a3,a4
     538:	00c681a3          	sb	a2,3(a3)
     53c:	00074683          	lbu	a3,0(a4)
     540:	0685                	addi	a3,a3,1
     542:	0ff6f693          	andi	a3,a3,255
     546:	00d70023          	sb	a3,0(a4)
     54a:	00074703          	lbu	a4,0(a4)
     54e:	46c1                	li	a3,16
     550:	00e69463          	bne	a3,a4,558 <USBHD_IRQHandler+0x278>
     554:	00078023          	sb	zero,0(a5)
     558:	0007c703          	lbu	a4,0(a5)
     55c:	462d                	li	a2,11
     55e:	00671693          	slli	a3,a4,0x6
     562:	93418713          	addi	a4,gp,-1740 # 2000030c <Data_Buffer>
     566:	9736                	add	a4,a4,a3
     568:	500006b7          	lui	a3,0x50000
     56c:	cad8                	sw	a4,20(a3)
     56e:	0027c703          	lbu	a4,2(a5)
     572:	0705                	addi	a4,a4,1
     574:	0ff77713          	andi	a4,a4,255
     578:	00e78123          	sb	a4,2(a5)
     57c:	0027c703          	lbu	a4,2(a5)
     580:	e2e670e3          	bgeu	a2,a4,3a0 <USBHD_IRQHandler+0xc0>
     584:	0376c703          	lbu	a4,55(a3) # 50000037 <_eusrstack+0x2fffb037>
     588:	0fc77713          	andi	a4,a4,252
     58c:	00276713          	ori	a4,a4,2
     590:	02e68ba3          	sb	a4,55(a3)
     594:	4705                	li	a4,1
     596:	00e789a3          	sb	a4,19(a5)
     59a:	b519                	j	3a0 <USBHD_IRQHandler+0xc0>
     59c:	0407f793          	andi	a5,a5,64
     5a0:	e00780e3          	beqz	a5,3a0 <USBHD_IRQHandler+0xc0>
     5a4:	4418                	lw	a4,8(s0)
     5a6:	03f44783          	lbu	a5,63(s0)
     5aa:	0742                	slli	a4,a4,0x10
     5ac:	0047c793          	xori	a5,a5,4
     5b0:	02f40fa3          	sb	a5,63(s0)
     5b4:	03f44783          	lbu	a5,63(s0)
     5b8:	8341                	srli	a4,a4,0x10
     5ba:	0fc7f793          	andi	a5,a5,252
     5be:	0027e793          	ori	a5,a5,2
     5c2:	02f40fa3          	sb	a5,63(s0)
     5c6:	e0818693          	addi	a3,gp,-504 # 200007e0 <USBFS_EP4_Buf>
     5ca:	4781                	li	a5,0
     5cc:	d8818613          	addi	a2,gp,-632 # 20000760 <USBFS_EP3_Buf>
     5d0:	01079593          	slli	a1,a5,0x10
     5d4:	81c1                	srli	a1,a1,0x10
     5d6:	00e5ed63          	bltu	a1,a4,5f0 <USBHD_IRQHandler+0x310>
     5da:	500007b7          	lui	a5,0x50000
     5de:	04e79023          	sh	a4,64(a5) # 50000040 <_eusrstack+0x2fffb040>
     5e2:	0427c703          	lbu	a4,66(a5)
     5e6:	0fc77713          	andi	a4,a4,252
     5ea:	04e78123          	sb	a4,66(a5)
     5ee:	bb4d                	j	3a0 <USBHD_IRQHandler+0xc0>
     5f0:	00f605b3          	add	a1,a2,a5
     5f4:	0005c583          	lbu	a1,0(a1)
     5f8:	00f68533          	add	a0,a3,a5
     5fc:	0785                	addi	a5,a5,1
     5fe:	fff5c593          	not	a1,a1
     602:	00b50023          	sb	a1,0(a0)
     606:	b7e9                	j	5d0 <USBHD_IRQHandler+0x2f0>
     608:	00f605b3          	add	a1,a2,a5
     60c:	0005c583          	lbu	a1,0(a1)
     610:	00f68533          	add	a0,a3,a5
     614:	0785                	addi	a5,a5,1
     616:	fff5c593          	not	a1,a1
     61a:	00b50023          	sb	a1,0(a0)
     61e:	b3b9                	j	36c <USBHD_IRQHandler+0x8c>
     620:	4799                	li	a5,6
     622:	02f40923          	sb	a5,50(s0)
     626:	02f409a3          	sb	a5,51(s0)
     62a:	d4818713          	addi	a4,gp,-696 # 20000720 <USBFS_EP0_Buf>
     62e:	00074783          	lbu	a5,0(a4)
     632:	8aa18613          	addi	a2,gp,-1878 # 20000282 <USBFS_SetupReqType>
     636:	00f60023          	sb	a5,0(a2)
     63a:	00174783          	lbu	a5,1(a4)
     63e:	00675683          	lhu	a3,6(a4)
     642:	8a418593          	addi	a1,gp,-1884 # 2000027c <USBFS_SetupReqCode>
     646:	00f58023          	sb	a5,0(a1)
     64a:	00275803          	lhu	a6,2(a4)
     64e:	8a818793          	addi	a5,gp,-1880 # 20000280 <USBFS_SetupReqLen>
     652:	00d79023          	sh	a3,0(a5)
     656:	8ac18693          	addi	a3,gp,-1876 # 20000284 <USBFS_SetupReqValue>
     65a:	01069023          	sh	a6,0(a3)
     65e:	00475803          	lhu	a6,4(a4)
     662:	8a618713          	addi	a4,gp,-1882 # 2000027e <USBFS_SetupReqIndex>
     666:	01071023          	sh	a6,0(a4)
     66a:	00064703          	lbu	a4,0(a2)
     66e:	8a818413          	addi	s0,gp,-1880 # 20000280 <USBFS_SetupReqLen>
     672:	8aa18913          	addi	s2,gp,-1878 # 20000282 <USBFS_SetupReqType>
     676:	06077713          	andi	a4,a4,96
     67a:	d4818613          	addi	a2,gp,-696 # 20000720 <USBFS_EP0_Buf>
     67e:	8ac18793          	addi	a5,gp,-1876 # 20000284 <USBFS_SetupReqValue>
     682:	8a618693          	addi	a3,gp,-1882 # 2000027e <USBFS_SetupReqIndex>
     686:	1c071f63          	bnez	a4,864 <__stack_size+0x64>
     68a:	0005c703          	lbu	a4,0(a1)
     68e:	45ad                	li	a1,11
     690:	0ff77713          	andi	a4,a4,255
     694:	1ce5e863          	bltu	a1,a4,864 <__stack_size+0x64>
     698:	6599                	lui	a1,0x6
     69a:	070a                	slli	a4,a4,0x2
     69c:	1c458593          	addi	a1,a1,452 # 61c4 <_read+0x10>
     6a0:	972e                	add	a4,a4,a1
     6a2:	4318                	lw	a4,0(a4)
     6a4:	8702                	jr	a4
     6a6:	0007d703          	lhu	a4,0(a5)
     6aa:	4689                	li	a3,2
     6ac:	8321                	srli	a4,a4,0x8
     6ae:	8b018993          	addi	s3,gp,-1872 # 20000288 <pUSBFS_Descr>
     6b2:	06d70363          	beq	a4,a3,718 <USBHD_IRQHandler+0x438>
     6b6:	460d                	li	a2,3
     6b8:	06c70e63          	beq	a4,a2,734 <USBHD_IRQHandler+0x454>
     6bc:	4785                	li	a5,1
     6be:	08f71763          	bne	a4,a5,74c <USBHD_IRQHandler+0x46c>
     6c2:	6799                	lui	a5,0x6
     6c4:	25878713          	addi	a4,a5,600 # 6258 <MyDevDescr>
     6c8:	2587c783          	lbu	a5,600(a5)
     6cc:	00e9a023          	sw	a4,0(s3)
     6d0:	4481                	li	s1,0
     6d2:	00045703          	lhu	a4,0(s0)
     6d6:	00e7f463          	bgeu	a5,a4,6de <USBHD_IRQHandler+0x3fe>
     6da:	00f41023          	sh	a5,0(s0)
     6de:	00045783          	lhu	a5,0(s0)
     6e2:	03f00713          	li	a4,63
     6e6:	04000a13          	li	s4,64
     6ea:	00f76763          	bltu	a4,a5,6f8 <USBHD_IRQHandler+0x418>
     6ee:	00045a03          	lhu	s4,0(s0)
     6f2:	0a42                	slli	s4,s4,0x10
     6f4:	010a5a13          	srli	s4,s4,0x10
     6f8:	0009aa83          	lw	s5,0(s3)
     6fc:	8652                	mv	a2,s4
     6fe:	d4818513          	addi	a0,gp,-696 # 20000720 <USBFS_EP0_Buf>
     702:	85d6                	mv	a1,s5
     704:	9a56                	add	s4,s4,s5
     706:	78c040ef          	jal	ra,4e92 <memcpy>
     70a:	0149a023          	sw	s4,0(s3)
     70e:	0ff00793          	li	a5,255
     712:	08f49663          	bne	s1,a5,79e <USBHD_IRQHandler+0x4be>
     716:	a2b9                	j	864 <__stack_size+0x64>
     718:	6719                	lui	a4,0x6
     71a:	21c70713          	addi	a4,a4,540 # 621c <MyCfgDescr>
     71e:	00374783          	lbu	a5,3(a4)
     722:	00e9a023          	sw	a4,0(s3)
     726:	00274703          	lbu	a4,2(a4)
     72a:	07a2                	slli	a5,a5,0x8
     72c:	97ba                	add	a5,a5,a4
     72e:	07c2                	slli	a5,a5,0x10
     730:	83c1                	srli	a5,a5,0x10
     732:	bf79                	j	6d0 <USBHD_IRQHandler+0x3f0>
     734:	0007d783          	lhu	a5,0(a5)
     738:	4605                	li	a2,1
     73a:	0ff7f793          	andi	a5,a5,255
     73e:	02c78263          	beq	a5,a2,762 <USBHD_IRQHandler+0x482>
     742:	cb89                	beqz	a5,754 <USBHD_IRQHandler+0x474>
     744:	02d78763          	beq	a5,a3,772 <USBHD_IRQHandler+0x492>
     748:	02e78d63          	beq	a5,a4,782 <USBHD_IRQHandler+0x4a2>
     74c:	4781                	li	a5,0
     74e:	0ff00493          	li	s1,255
     752:	b741                	j	6d2 <USBHD_IRQHandler+0x3f2>
     754:	82818713          	addi	a4,gp,-2008 # 20000200 <MyLangDescr>
     758:	00e9a023          	sw	a4,0(s3)
     75c:	8281c783          	lbu	a5,-2008(gp) # 20000200 <MyLangDescr>
     760:	bf85                	j	6d0 <USBHD_IRQHandler+0x3f0>
     762:	6799                	lui	a5,0x6
     764:	26c78713          	addi	a4,a5,620 # 626c <MyManuInfo>
     768:	00e9a023          	sw	a4,0(s3)
     76c:	26c7c783          	lbu	a5,620(a5)
     770:	b785                	j	6d0 <USBHD_IRQHandler+0x3f0>
     772:	6799                	lui	a5,0x6
     774:	27c78713          	addi	a4,a5,636 # 627c <MyProdInfo>
     778:	00e9a023          	sw	a4,0(s3)
     77c:	27c7c783          	lbu	a5,636(a5)
     780:	bf81                	j	6d0 <USBHD_IRQHandler+0x3f0>
     782:	6799                	lui	a5,0x6
     784:	29078713          	addi	a4,a5,656 # 6290 <MySerNumInfo>
     788:	00e9a023          	sw	a4,0(s3)
     78c:	2907c783          	lbu	a5,656(a5)
     790:	b781                	j	6d0 <USBHD_IRQHandler+0x3f0>
     792:	0007d783          	lhu	a5,0(a5)
     796:	0ff7f793          	andi	a5,a5,255
     79a:	88f18c23          	sb	a5,-1896(gp) # 20000270 <_edata>
     79e:	00094783          	lbu	a5,0(s2)
     7a2:	07e2                	slli	a5,a5,0x18
     7a4:	87e1                	srai	a5,a5,0x18
     7a6:	2c07dd63          	bgez	a5,a80 <__stack_size+0x280>
     7aa:	00045703          	lhu	a4,0(s0)
     7ae:	04000793          	li	a5,64
     7b2:	00e7e663          	bltu	a5,a4,7be <USBHD_IRQHandler+0x4de>
     7b6:	00045783          	lhu	a5,0(s0)
     7ba:	07c2                	slli	a5,a5,0x10
     7bc:	83c1                	srli	a5,a5,0x10
     7be:	00045703          	lhu	a4,0(s0)
     7c2:	8f1d                	sub	a4,a4,a5
     7c4:	0742                	slli	a4,a4,0x10
     7c6:	8341                	srli	a4,a4,0x10
     7c8:	00e41023          	sh	a4,0(s0)
     7cc:	50000737          	lui	a4,0x50000
     7d0:	02f71823          	sh	a5,48(a4) # 50000030 <_eusrstack+0x2fffb030>
     7d4:	4791                	li	a5,4
     7d6:	02f70923          	sb	a5,50(a4)
     7da:	b6d9                	j	3a0 <USBHD_IRQHandler+0xc0>
     7dc:	8991c783          	lbu	a5,-1895(gp) # 20000271 <USBFS_DevConfig>
     7e0:	00f60023          	sb	a5,0(a2)
     7e4:	00045703          	lhu	a4,0(s0)
     7e8:	4785                	li	a5,1
     7ea:	fae7fae3          	bgeu	a5,a4,79e <USBHD_IRQHandler+0x4be>
     7ee:	00f41023          	sh	a5,0(s0)
     7f2:	b775                	j	79e <USBHD_IRQHandler+0x4be>
     7f4:	0007d783          	lhu	a5,0(a5)
     7f8:	0ff7f793          	andi	a5,a5,255
     7fc:	88f18ca3          	sb	a5,-1895(gp) # 20000271 <USBFS_DevConfig>
     800:	4705                	li	a4,1
     802:	88e18d23          	sb	a4,-1894(gp) # 20000272 <USBFS_DevEnumStatus>
     806:	bf61                	j	79e <USBHD_IRQHandler+0x4be>
     808:	00094703          	lbu	a4,0(s2)
     80c:	8b7d                	andi	a4,a4,31
     80e:	e30d                	bnez	a4,830 <__stack_size+0x30>
     810:	0007d783          	lhu	a5,0(a5)
     814:	4705                	li	a4,1
     816:	0ff7f793          	andi	a5,a5,255
     81a:	f8e792e3          	bne	a5,a4,79e <USBHD_IRQHandler+0x4be>
     81e:	89b18793          	addi	a5,gp,-1893 # 20000273 <USBFS_DevSleepStatus>
     822:	0007c703          	lbu	a4,0(a5)
     826:	0fe77713          	andi	a4,a4,254
     82a:	00e78023          	sb	a4,0(a5)
     82e:	bf85                	j	79e <USBHD_IRQHandler+0x4be>
     830:	00094703          	lbu	a4,0(s2)
     834:	4609                	li	a2,2
     836:	8b7d                	andi	a4,a4,31
     838:	02c71663          	bne	a4,a2,864 <__stack_size+0x64>
     83c:	0007d783          	lhu	a5,0(a5)
     840:	0ff7f793          	andi	a5,a5,255
     844:	e385                	bnez	a5,864 <__stack_size+0x64>
     846:	0006d783          	lhu	a5,0(a3)
     84a:	4695                	li	a3,5
     84c:	0ff7f793          	andi	a5,a5,255
     850:	06d78263          	beq	a5,a3,8b4 <__stack_size+0xb4>
     854:	02f6e063          	bltu	a3,a5,874 <__stack_size+0x74>
     858:	4705                	li	a4,1
     85a:	02e78e63          	beq	a5,a4,896 <__stack_size+0x96>
     85e:	470d                	li	a4,3
     860:	04e78063          	beq	a5,a4,8a0 <__stack_size+0xa0>
     864:	500007b7          	lui	a5,0x50000
     868:	471d                	li	a4,7
     86a:	02e78923          	sb	a4,50(a5) # 50000032 <_eusrstack+0x2fffb032>
     86e:	02e789a3          	sb	a4,51(a5)
     872:	b63d                	j	3a0 <USBHD_IRQHandler+0xc0>
     874:	08400693          	li	a3,132
     878:	02d78963          	beq	a5,a3,8aa <__stack_size+0xaa>
     87c:	08600693          	li	a3,134
     880:	02d78f63          	beq	a5,a3,8be <__stack_size+0xbe>
     884:	08200693          	li	a3,130
     888:	fcd79ee3          	bne	a5,a3,864 <__stack_size+0x64>
     88c:	500007b7          	lui	a5,0x50000
     890:	02e78d23          	sb	a4,58(a5) # 5000003a <_eusrstack+0x2fffb03a>
     894:	b729                	j	79e <USBHD_IRQHandler+0x4be>
     896:	500007b7          	lui	a5,0x50000
     89a:	02078ba3          	sb	zero,55(a5) # 50000037 <_eusrstack+0x2fffb037>
     89e:	b701                	j	79e <USBHD_IRQHandler+0x4be>
     8a0:	500007b7          	lui	a5,0x50000
     8a4:	02078fa3          	sb	zero,63(a5) # 5000003f <_eusrstack+0x2fffb03f>
     8a8:	bddd                	j	79e <USBHD_IRQHandler+0x4be>
     8aa:	500007b7          	lui	a5,0x50000
     8ae:	04e78123          	sb	a4,66(a5) # 50000042 <_eusrstack+0x2fffb042>
     8b2:	b5f5                	j	79e <USBHD_IRQHandler+0x4be>
     8b4:	500007b7          	lui	a5,0x50000
     8b8:	040783a3          	sb	zero,71(a5) # 50000047 <_eusrstack+0x2fffb047>
     8bc:	b5cd                	j	79e <USBHD_IRQHandler+0x4be>
     8be:	500007b7          	lui	a5,0x50000
     8c2:	04e78523          	sb	a4,74(a5) # 5000004a <_eusrstack+0x2fffb04a>
     8c6:	bde1                	j	79e <USBHD_IRQHandler+0x4be>
     8c8:	00094703          	lbu	a4,0(s2)
     8cc:	8b7d                	andi	a4,a4,31
     8ce:	e70d                	bnez	a4,8f8 <__stack_size+0xf8>
     8d0:	0007d783          	lhu	a5,0(a5)
     8d4:	4705                	li	a4,1
     8d6:	0ff7f793          	andi	a5,a5,255
     8da:	f8e795e3          	bne	a5,a4,864 <__stack_size+0x64>
     8de:	6799                	lui	a5,0x6
     8e0:	2237c783          	lbu	a5,547(a5) # 6223 <MyCfgDescr+0x7>
     8e4:	0207f793          	andi	a5,a5,32
     8e8:	dfb5                	beqz	a5,864 <__stack_size+0x64>
     8ea:	89b18793          	addi	a5,gp,-1893 # 20000273 <USBFS_DevSleepStatus>
     8ee:	0007c703          	lbu	a4,0(a5)
     8f2:	00176713          	ori	a4,a4,1
     8f6:	bf15                	j	82a <__stack_size+0x2a>
     8f8:	00094703          	lbu	a4,0(s2)
     8fc:	4609                	li	a2,2
     8fe:	8b7d                	andi	a4,a4,31
     900:	f6c712e3          	bne	a4,a2,864 <__stack_size+0x64>
     904:	0007d783          	lhu	a5,0(a5)
     908:	0ff7f793          	andi	a5,a5,255
     90c:	ffa1                	bnez	a5,864 <__stack_size+0x64>
     90e:	0006d783          	lhu	a5,0(a3)
     912:	4715                	li	a4,5
     914:	0ff7f793          	andi	a5,a5,255
     918:	06e78a63          	beq	a5,a4,98c <__stack_size+0x18c>
     91c:	02f76163          	bltu	a4,a5,93e <__stack_size+0x13e>
     920:	4705                	li	a4,1
     922:	04e78363          	beq	a5,a4,968 <__stack_size+0x168>
     926:	470d                	li	a4,3
     928:	f2e79ee3          	bne	a5,a4,864 <__stack_size+0x64>
     92c:	50000737          	lui	a4,0x50000
     930:	03f74783          	lbu	a5,63(a4) # 5000003f <_eusrstack+0x2fffb03f>
     934:	0037e793          	ori	a5,a5,3
     938:	02f70fa3          	sb	a5,63(a4)
     93c:	b58d                	j	79e <USBHD_IRQHandler+0x4be>
     93e:	08400713          	li	a4,132
     942:	02e78c63          	beq	a5,a4,97a <__stack_size+0x17a>
     946:	08600713          	li	a4,134
     94a:	04e78a63          	beq	a5,a4,99e <__stack_size+0x19e>
     94e:	08200713          	li	a4,130
     952:	f0e799e3          	bne	a5,a4,864 <__stack_size+0x64>
     956:	50000737          	lui	a4,0x50000
     95a:	03a74783          	lbu	a5,58(a4) # 5000003a <_eusrstack+0x2fffb03a>
     95e:	0037e793          	ori	a5,a5,3
     962:	02f70d23          	sb	a5,58(a4)
     966:	bd25                	j	79e <USBHD_IRQHandler+0x4be>
     968:	50000737          	lui	a4,0x50000
     96c:	03774783          	lbu	a5,55(a4) # 50000037 <_eusrstack+0x2fffb037>
     970:	0037e793          	ori	a5,a5,3
     974:	02f70ba3          	sb	a5,55(a4)
     978:	b51d                	j	79e <USBHD_IRQHandler+0x4be>
     97a:	50000737          	lui	a4,0x50000
     97e:	04274783          	lbu	a5,66(a4) # 50000042 <_eusrstack+0x2fffb042>
     982:	0037e793          	ori	a5,a5,3
     986:	04f70123          	sb	a5,66(a4)
     98a:	bd11                	j	79e <USBHD_IRQHandler+0x4be>
     98c:	50000737          	lui	a4,0x50000
     990:	04774783          	lbu	a5,71(a4) # 50000047 <_eusrstack+0x2fffb047>
     994:	0037e793          	ori	a5,a5,3
     998:	04f703a3          	sb	a5,71(a4)
     99c:	b509                	j	79e <USBHD_IRQHandler+0x4be>
     99e:	50000737          	lui	a4,0x50000
     9a2:	04a74783          	lbu	a5,74(a4) # 5000004a <_eusrstack+0x2fffb04a>
     9a6:	0037e793          	ori	a5,a5,3
     9aa:	04f70523          	sb	a5,74(a4)
     9ae:	bbc5                	j	79e <USBHD_IRQHandler+0x4be>
     9b0:	00060023          	sb	zero,0(a2)
     9b4:	bd05                	j	7e4 <USBHD_IRQHandler+0x504>
     9b6:	00094783          	lbu	a5,0(s2)
     9ba:	00061023          	sh	zero,0(a2)
     9be:	8bfd                	andi	a5,a5,31
     9c0:	e38d                	bnez	a5,9e2 <__stack_size+0x1e2>
     9c2:	89b1c783          	lbu	a5,-1893(gp) # 20000273 <USBFS_DevSleepStatus>
     9c6:	4481                	li	s1,0
     9c8:	8b85                	andi	a5,a5,1
     9ca:	c781                	beqz	a5,9d2 <__stack_size+0x1d2>
     9cc:	4789                	li	a5,2
     9ce:	00f60023          	sb	a5,0(a2)
     9d2:	00045703          	lhu	a4,0(s0)
     9d6:	4789                	li	a5,2
     9d8:	d2e7fbe3          	bgeu	a5,a4,70e <USBHD_IRQHandler+0x42e>
     9dc:	00f41023          	sh	a5,0(s0)
     9e0:	b33d                	j	70e <USBHD_IRQHandler+0x42e>
     9e2:	00094783          	lbu	a5,0(s2)
     9e6:	4709                	li	a4,2
     9e8:	0ff00493          	li	s1,255
     9ec:	8bfd                	andi	a5,a5,31
     9ee:	fee792e3          	bne	a5,a4,9d2 <__stack_size+0x1d2>
     9f2:	0006d783          	lhu	a5,0(a3)
     9f6:	4715                	li	a4,5
     9f8:	0ff7f793          	andi	a5,a5,255
     9fc:	06e78863          	beq	a5,a4,a6c <__stack_size+0x26c>
     a00:	02f76063          	bltu	a4,a5,a20 <__stack_size+0x220>
     a04:	4705                	li	a4,1
     a06:	04e78063          	beq	a5,a4,a46 <__stack_size+0x246>
     a0a:	470d                	li	a4,3
     a0c:	fce793e3          	bne	a5,a4,9d2 <__stack_size+0x1d2>
     a10:	50000737          	lui	a4,0x50000
     a14:	03f74703          	lbu	a4,63(a4) # 5000003f <_eusrstack+0x2fffb03f>
     a18:	8b0d                	andi	a4,a4,3
     a1a:	04e79263          	bne	a5,a4,a5e <__stack_size+0x25e>
     a1e:	a82d                	j	a58 <__stack_size+0x258>
     a20:	08400713          	li	a4,132
     a24:	02e78f63          	beq	a5,a4,a62 <__stack_size+0x262>
     a28:	08600713          	li	a4,134
     a2c:	04e78563          	beq	a5,a4,a76 <__stack_size+0x276>
     a30:	08200713          	li	a4,130
     a34:	f8e79fe3          	bne	a5,a4,9d2 <__stack_size+0x1d2>
     a38:	500007b7          	lui	a5,0x50000
     a3c:	03a7c783          	lbu	a5,58(a5) # 5000003a <_eusrstack+0x2fffb03a>
     a40:	8b8d                	andi	a5,a5,3
     a42:	470d                	li	a4,3
     a44:	bfd9                	j	a1a <__stack_size+0x21a>
     a46:	500007b7          	lui	a5,0x50000
     a4a:	0377c783          	lbu	a5,55(a5) # 50000037 <_eusrstack+0x2fffb037>
     a4e:	470d                	li	a4,3
     a50:	4481                	li	s1,0
     a52:	8b8d                	andi	a5,a5,3
     a54:	f6e79fe3          	bne	a5,a4,9d2 <__stack_size+0x1d2>
     a58:	4785                	li	a5,1
     a5a:	00f60023          	sb	a5,0(a2)
     a5e:	4481                	li	s1,0
     a60:	bf8d                	j	9d2 <__stack_size+0x1d2>
     a62:	500007b7          	lui	a5,0x50000
     a66:	0427c783          	lbu	a5,66(a5) # 50000042 <_eusrstack+0x2fffb042>
     a6a:	bfd9                	j	a40 <__stack_size+0x240>
     a6c:	500007b7          	lui	a5,0x50000
     a70:	0477c783          	lbu	a5,71(a5) # 50000047 <_eusrstack+0x2fffb047>
     a74:	b7f1                	j	a40 <__stack_size+0x240>
     a76:	500007b7          	lui	a5,0x50000
     a7a:	04a7c783          	lbu	a5,74(a5) # 5000004a <_eusrstack+0x2fffb04a>
     a7e:	b7c9                	j	a40 <__stack_size+0x240>
     a80:	00045783          	lhu	a5,0(s0)
     a84:	07c2                	slli	a5,a5,0x10
     a86:	83c1                	srli	a5,a5,0x10
     a88:	e799                	bnez	a5,a96 <__stack_size+0x296>
     a8a:	500007b7          	lui	a5,0x50000
     a8e:	02079823          	sh	zero,48(a5) # 50000030 <_eusrstack+0x2fffb030>
     a92:	4711                	li	a4,4
     a94:	b2c5                	j	474 <USBHD_IRQHandler+0x194>
     a96:	500007b7          	lui	a5,0x50000
     a9a:	4711                	li	a4,4
     a9c:	bbc9                	j	86e <__stack_size+0x6e>
     a9e:	00177793          	andi	a5,a4,1
     aa2:	c38d                	beqz	a5,ac4 <__stack_size+0x2c4>
     aa4:	000401a3          	sb	zero,3(s0)
     aa8:	fa6ff0ef          	jal	ra,24e <USBFS_Device_Endp_Init>
     aac:	4785                	li	a5,1
     aae:	00f40323          	sb	a5,6(s0)
     ab2:	4472                	lw	s0,28(sp)
     ab4:	44e2                	lw	s1,24(sp)
     ab6:	4952                	lw	s2,20(sp)
     ab8:	49c2                	lw	s3,16(sp)
     aba:	4a32                	lw	s4,12(sp)
     abc:	4aa2                	lw	s5,8(sp)
     abe:	6105                	addi	sp,sp,32
     ac0:	30200073          	mret
     ac4:	00477793          	andi	a5,a4,4
     ac8:	cb95                	beqz	a5,afc <__stack_size+0x2fc>
     aca:	00544703          	lbu	a4,5(s0)
     ace:	89b18793          	addi	a5,gp,-1893 # 20000273 <USBFS_DevSleepStatus>
     ad2:	8b11                	andi	a4,a4,4
     ad4:	cf09                	beqz	a4,aee <__stack_size+0x2ee>
     ad6:	0007c703          	lbu	a4,0(a5) # 50000000 <_eusrstack+0x2fffb000>
     ada:	00276713          	ori	a4,a4,2
     ade:	00e78023          	sb	a4,0(a5)
     ae2:	0007c783          	lbu	a5,0(a5)
     ae6:	500007b7          	lui	a5,0x50000
     aea:	4711                	li	a4,4
     aec:	b86d                	j	3a6 <USBHD_IRQHandler+0xc6>
     aee:	0007c703          	lbu	a4,0(a5) # 50000000 <_eusrstack+0x2fffb000>
     af2:	0fd77713          	andi	a4,a4,253
     af6:	00e78023          	sb	a4,0(a5)
     afa:	b7f5                	j	ae6 <__stack_size+0x2e6>
     afc:	00e40323          	sb	a4,6(s0)
     b00:	bf4d                	j	ab2 <__stack_size+0x2b2>

00000b02 <GPIO_INIT>:
     b02:	e6eff2ef          	jal	t0,170 <__riscv_save_0>
     b06:	1141                	addi	sp,sp,-16
     b08:	4585                	li	a1,1
     b0a:	4511                	li	a0,4
     b0c:	c202                	sw	zero,4(sp)
     b0e:	c402                	sw	zero,8(sp)
     b10:	c602                	sw	zero,12(sp)
     b12:	3f4020ef          	jal	ra,2f06 <RCC_APB2PeriphClockCmd>
     b16:	4785                	li	a5,1
     b18:	00f11223          	sh	a5,4(sp)
     b1c:	40011537          	lui	a0,0x40011
     b20:	47c1                	li	a5,16
     b22:	c63e                	sw	a5,12(sp)
     b24:	004c                	addi	a1,sp,4
     b26:	478d                	li	a5,3
     b28:	80050513          	addi	a0,a0,-2048 # 40010800 <_eusrstack+0x2000b800>
     b2c:	c43e                	sw	a5,8(sp)
     b2e:	10a020ef          	jal	ra,2c38 <GPIO_Init>
     b32:	0141                	addi	sp,sp,16
     b34:	e60ff06f          	j	194 <__riscv_restore_0>

00000b38 <main>:
     b38:	e38ff2ef          	jal	t0,170 <__riscv_save_0>
     b3c:	4501                	li	a0,0
     b3e:	20c020ef          	jal	ra,2d4a <NVIC_PriorityGroupConfig>
     b42:	6409                	lui	s0,0x2
     b44:	1d0040ef          	jal	ra,4d14 <Delay_Init>
     b48:	58040513          	addi	a0,s0,1408 # 2580 <USBFSH_CtrlTransfer+0x30>
     b4c:	25e040ef          	jal	ra,4daa <USART_Printf_Init>
     b50:	200004b7          	lui	s1,0x20000
     b54:	1d84a583          	lw	a1,472(s1) # 200001d8 <SystemCoreClock>
     b58:	00006537          	lui	a0,0x6
     b5c:	1f450513          	addi	a0,a0,500 # 61f4 <_read+0x40>
     b60:	564040ef          	jal	ra,50c4 <iprintf>
     b64:	1d84a583          	lw	a1,472(s1)
     b68:	71040413          	addi	s0,s0,1808
     b6c:	4505                	li	a0,1
     b6e:	0285d5b3          	divu	a1,a1,s0
     b72:	15fd                	addi	a1,a1,-1
     b74:	05c2                	slli	a1,a1,0x10
     b76:	81c1                	srli	a1,a1,0x10
     b78:	2a25                	jal	cb0 <TIM3_Init>
     b7a:	00006537          	lui	a0,0x6
     b7e:	20450513          	addi	a0,a0,516 # 6204 <_read+0x50>
     b82:	65c040ef          	jal	ra,51de <puts>
     b86:	3fb5                	jal	b02 <GPIO_INIT>
     b88:	6e6010ef          	jal	ra,226e <USBFS_RCC_Init>
     b8c:	4505                	li	a0,1
     b8e:	726010ef          	jal	ra,22b4 <USBFS_Host_Init>
     b92:	20001537          	lui	a0,0x20001
     b96:	467d                	li	a2,31
     b98:	4581                	li	a1,0
     b9a:	2c850513          	addi	a0,a0,712 # 200012c8 <RootHubDev>
     b9e:	e02ff0ef          	jal	ra,1a0 <memset>
     ba2:	20001537          	lui	a0,0x20001
     ba6:	53200613          	li	a2,1330
     baa:	4581                	li	a1,0
     bac:	d8450513          	addi	a0,a0,-636 # 20000d84 <HostCtl>
     bb0:	df0ff0ef          	jal	ra,1a0 <memset>
     bb4:	00006537          	lui	a0,0x6
     bb8:	21050513          	addi	a0,a0,528 # 6210 <_read+0x5c>
     bbc:	622040ef          	jal	ra,51de <puts>
     bc0:	016010ef          	jal	ra,1bd6 <USBH_MainDeal>
     bc4:	bff5                	j	bc0 <main+0x88>

00000bc6 <SystemInit>:
     bc6:	400217b7          	lui	a5,0x40021
     bca:	4398                	lw	a4,0(a5)
     bcc:	f8ff06b7          	lui	a3,0xf8ff0
     bd0:	1141                	addi	sp,sp,-16
     bd2:	00176713          	ori	a4,a4,1
     bd6:	c398                	sw	a4,0(a5)
     bd8:	43d8                	lw	a4,4(a5)
     bda:	00020637          	lui	a2,0x20
     bde:	8f75                	and	a4,a4,a3
     be0:	c3d8                	sw	a4,4(a5)
     be2:	4398                	lw	a4,0(a5)
     be4:	fef706b7          	lui	a3,0xfef70
     be8:	16fd                	addi	a3,a3,-1
     bea:	8f75                	and	a4,a4,a3
     bec:	c398                	sw	a4,0(a5)
     bee:	4398                	lw	a4,0(a5)
     bf0:	fffc06b7          	lui	a3,0xfffc0
     bf4:	16fd                	addi	a3,a3,-1
     bf6:	8f75                	and	a4,a4,a3
     bf8:	c398                	sw	a4,0(a5)
     bfa:	43d8                	lw	a4,4(a5)
     bfc:	ff8106b7          	lui	a3,0xff810
     c00:	16fd                	addi	a3,a3,-1
     c02:	8f75                	and	a4,a4,a3
     c04:	c3d8                	sw	a4,4(a5)
     c06:	009f0737          	lui	a4,0x9f0
     c0a:	c798                	sw	a4,8(a5)
     c0c:	c402                	sw	zero,8(sp)
     c0e:	c602                	sw	zero,12(sp)
     c10:	4398                	lw	a4,0(a5)
     c12:	66c1                	lui	a3,0x10
     c14:	8f55                	or	a4,a4,a3
     c16:	c398                	sw	a4,0(a5)
     c18:	400216b7          	lui	a3,0x40021
     c1c:	6705                	lui	a4,0x1
     c1e:	429c                	lw	a5,0(a3)
     c20:	8ff1                	and	a5,a5,a2
     c22:	c63e                	sw	a5,12(sp)
     c24:	47a2                	lw	a5,8(sp)
     c26:	0785                	addi	a5,a5,1
     c28:	c43e                	sw	a5,8(sp)
     c2a:	47b2                	lw	a5,12(sp)
     c2c:	e781                	bnez	a5,c34 <SystemInit+0x6e>
     c2e:	47a2                	lw	a5,8(sp)
     c30:	fee797e3          	bne	a5,a4,c1e <SystemInit+0x58>
     c34:	400217b7          	lui	a5,0x40021
     c38:	439c                	lw	a5,0(a5)
     c3a:	00e79713          	slli	a4,a5,0xe
     c3e:	06075763          	bgez	a4,cac <SystemInit+0xe6>
     c42:	4785                	li	a5,1
     c44:	c63e                	sw	a5,12(sp)
     c46:	4732                	lw	a4,12(sp)
     c48:	4785                	li	a5,1
     c4a:	04f71f63          	bne	a4,a5,ca8 <SystemInit+0xe2>
     c4e:	400217b7          	lui	a5,0x40021
     c52:	43d8                	lw	a4,4(a5)
     c54:	ffc106b7          	lui	a3,0xffc10
     c58:	16fd                	addi	a3,a3,-1
     c5a:	c3d8                	sw	a4,4(a5)
     c5c:	43d8                	lw	a4,4(a5)
     c5e:	c3d8                	sw	a4,4(a5)
     c60:	43d8                	lw	a4,4(a5)
     c62:	40076713          	ori	a4,a4,1024
     c66:	c3d8                	sw	a4,4(a5)
     c68:	43d8                	lw	a4,4(a5)
     c6a:	8f75                	and	a4,a4,a3
     c6c:	c3d8                	sw	a4,4(a5)
     c6e:	43d8                	lw	a4,4(a5)
     c70:	003d06b7          	lui	a3,0x3d0
     c74:	8f55                	or	a4,a4,a3
     c76:	c3d8                	sw	a4,4(a5)
     c78:	4398                	lw	a4,0(a5)
     c7a:	010006b7          	lui	a3,0x1000
     c7e:	8f55                	or	a4,a4,a3
     c80:	c398                	sw	a4,0(a5)
     c82:	4398                	lw	a4,0(a5)
     c84:	00671693          	slli	a3,a4,0x6
     c88:	fe06dde3          	bgez	a3,c82 <SystemInit+0xbc>
     c8c:	43d8                	lw	a4,4(a5)
     c8e:	400216b7          	lui	a3,0x40021
     c92:	9b71                	andi	a4,a4,-4
     c94:	c3d8                	sw	a4,4(a5)
     c96:	43d8                	lw	a4,4(a5)
     c98:	00276713          	ori	a4,a4,2
     c9c:	c3d8                	sw	a4,4(a5)
     c9e:	4721                	li	a4,8
     ca0:	42dc                	lw	a5,4(a3)
     ca2:	8bb1                	andi	a5,a5,12
     ca4:	fee79ee3          	bne	a5,a4,ca0 <SystemInit+0xda>
     ca8:	0141                	addi	sp,sp,16
     caa:	8082                	ret
     cac:	c602                	sw	zero,12(sp)
     cae:	bf61                	j	c46 <SystemInit+0x80>

00000cb0 <TIM3_Init>:
     cb0:	cc0ff2ef          	jal	t0,170 <__riscv_save_0>
     cb4:	1101                	addi	sp,sp,-32
     cb6:	84aa                	mv	s1,a0
     cb8:	842e                	mv	s0,a1
     cba:	4509                	li	a0,2
     cbc:	4585                	li	a1,1
     cbe:	ca02                	sw	zero,20(sp)
     cc0:	cc02                	sw	zero,24(sp)
     cc2:	00011e23          	sh	zero,28(sp)
     cc6:	c602                	sw	zero,12(sp)
     cc8:	c802                	sw	zero,16(sp)
     cca:	25a020ef          	jal	ra,2f24 <RCC_APB1PeriphClockCmd>
     cce:	00811a23          	sh	s0,20(sp)
     cd2:	40000437          	lui	s0,0x40000
     cd6:	084c                	addi	a1,sp,20
     cd8:	40040513          	addi	a0,s0,1024 # 40000400 <_eusrstack+0x1fffb400>
     cdc:	00911c23          	sh	s1,24(sp)
     ce0:	00011d23          	sh	zero,26(sp)
     ce4:	00011b23          	sh	zero,22(sp)
     ce8:	25a020ef          	jal	ra,2f42 <TIM_TimeBaseInit>
     cec:	4605                	li	a2,1
     cee:	4585                	li	a1,1
     cf0:	40040513          	addi	a0,s0,1024
     cf4:	2ea020ef          	jal	ra,2fde <TIM_ITConfig>
     cf8:	12d00793          	li	a5,301
     cfc:	00f11623          	sh	a5,12(sp)
     d00:	4789                	li	a5,2
     d02:	00f10723          	sb	a5,14(sp)
     d06:	0068                	addi	a0,sp,12
     d08:	4785                	li	a5,1
     d0a:	c83e                	sw	a5,16(sp)
     d0c:	044020ef          	jal	ra,2d50 <NVIC_Init>
     d10:	4585                	li	a1,1
     d12:	40040513          	addi	a0,s0,1024
     d16:	2ac020ef          	jal	ra,2fc2 <TIM_Cmd>
     d1a:	e000e7b7          	lui	a5,0xe000e
     d1e:	6709                	lui	a4,0x2
     d20:	10e7a223          	sw	a4,260(a5) # e000e104 <_eusrstack+0xc0009104>
     d24:	6105                	addi	sp,sp,32
     d26:	c6eff06f          	j	194 <__riscv_restore_0>

00000d2a <TIM3_IRQHandler>:
     d2a:	2019                	jal	d30 <TIM3_IRQHandler_Real>
     d2c:	30200073          	mret

00000d30 <TIM3_IRQHandler_Real>:
     d30:	c40ff2ef          	jal	t0,170 <__riscv_save_0>
     d34:	40000437          	lui	s0,0x40000
     d38:	4585                	li	a1,1
     d3a:	40040513          	addi	a0,s0,1024 # 40000400 <_eusrstack+0x1fffb400>
     d3e:	2b6020ef          	jal	ra,2ff4 <TIM_GetITStatus>
     d42:	c545                	beqz	a0,dea <TIM3_IRQHandler_Real+0xba>
     d44:	4585                	li	a1,1
     d46:	40040513          	addi	a0,s0,1024
     d4a:	2c6020ef          	jal	ra,3010 <TIM_ClearITPendingBit>
     d4e:	20001737          	lui	a4,0x20001
     d52:	2c870693          	addi	a3,a4,712 # 200012c8 <RootHubDev>
     d56:	0006c603          	lbu	a2,0(a3) # 40021000 <_eusrstack+0x2001c000>
     d5a:	4789                	li	a5,2
     d5c:	08c7f763          	bgeu	a5,a2,dea <TIM3_IRQHandler_Real+0xba>
     d60:	0016c603          	lbu	a2,1(a3)
     d64:	458d                	li	a1,3
     d66:	0056c783          	lbu	a5,5(a3)
     d6a:	04b61463          	bne	a2,a1,db2 <TIM3_IRQHandler_Real+0x82>
     d6e:	10a00713          	li	a4,266
     d72:	02e78733          	mul	a4,a5,a4
     d76:	3ac18793          	addi	a5,gp,940 # 20000d84 <HostCtl>
     d7a:	4681                	li	a3,0
     d7c:	97ba                	add	a5,a5,a4
     d7e:	0007c803          	lbu	a6,0(a5)
     d82:	06d80463          	beq	a6,a3,dea <TIM3_IRQHandler_Real+0xba>
     d86:	0087c503          	lbu	a0,8(a5)
     d8a:	863e                	mv	a2,a5
     d8c:	4701                	li	a4,0
     d8e:	a809                	j	da0 <TIM3_IRQHandler_Real+0x70>
     d90:	02164583          	lbu	a1,33(a2) # 20021 <_data_lma+0x19c8d>
     d94:	0705                	addi	a4,a4,1
     d96:	0ff77713          	andi	a4,a4,255
     d9a:	0585                	addi	a1,a1,1
     d9c:	02b600a3          	sb	a1,33(a2)
     da0:	0605                	addi	a2,a2,1
     da2:	fee517e3          	bne	a0,a4,d90 <TIM3_IRQHandler_Real+0x60>
     da6:	0685                	addi	a3,a3,1
     da8:	0ff6f693          	andi	a3,a3,255
     dac:	04278793          	addi	a5,a5,66
     db0:	bfc9                	j	d82 <TIM3_IRQHandler_Real+0x52>
     db2:	45a5                	li	a1,9
     db4:	02b61b63          	bne	a2,a1,dea <TIM3_IRQHandler_Real+0xba>
     db8:	10a00513          	li	a0,266
     dbc:	02a787b3          	mul	a5,a5,a0
     dc0:	3ac18593          	addi	a1,gp,940 # 20000d84 <HostCtl>
     dc4:	0066c303          	lbu	t1,6(a3)
     dc8:	2c870713          	addi	a4,a4,712
     dcc:	4681                	li	a3,0
     dce:	3ac18513          	addi	a0,gp,940 # 20000d84 <HostCtl>
     dd2:	4e09                	li	t3,2
     dd4:	4e8d                	li	t4,3
     dd6:	10a00f13          	li	t5,266
     dda:	97ae                	add	a5,a5,a1
     ddc:	0227c583          	lbu	a1,34(a5)
     de0:	0585                	addi	a1,a1,1
     de2:	02b78123          	sb	a1,34(a5)
     de6:	00d31463          	bne	t1,a3,dee <TIM3_IRQHandler_Real+0xbe>
     dea:	baaff06f          	j	194 <__riscv_restore_0>
     dee:	00774783          	lbu	a5,7(a4)
     df2:	04fe7663          	bgeu	t3,a5,e3e <TIM3_IRQHandler_Real+0x10e>
     df6:	00874783          	lbu	a5,8(a4)
     dfa:	05d79263          	bne	a5,t4,e3e <TIM3_IRQHandler_Real+0x10e>
     dfe:	00c74783          	lbu	a5,12(a4)
     e02:	4581                	li	a1,0
     e04:	03e787b3          	mul	a5,a5,t5
     e08:	97aa                	add	a5,a5,a0
     e0a:	0007c283          	lbu	t0,0(a5)
     e0e:	02b28863          	beq	t0,a1,e3e <TIM3_IRQHandler_Real+0x10e>
     e12:	0087cf83          	lbu	t6,8(a5)
     e16:	883e                	mv	a6,a5
     e18:	4601                	li	a2,0
     e1a:	a809                	j	e2c <TIM3_IRQHandler_Real+0xfc>
     e1c:	02184883          	lbu	a7,33(a6)
     e20:	0605                	addi	a2,a2,1
     e22:	0ff67613          	andi	a2,a2,255
     e26:	0885                	addi	a7,a7,1
     e28:	031800a3          	sb	a7,33(a6)
     e2c:	0805                	addi	a6,a6,1
     e2e:	fecf97e3          	bne	t6,a2,e1c <TIM3_IRQHandler_Real+0xec>
     e32:	0585                	addi	a1,a1,1
     e34:	0ff5f593          	andi	a1,a1,255
     e38:	04278793          	addi	a5,a5,66
     e3c:	bfc9                	j	e0e <TIM3_IRQHandler_Real+0xde>
     e3e:	0685                	addi	a3,a3,1
     e40:	0ff6f693          	andi	a3,a3,255
     e44:	0719                	addi	a4,a4,6
     e46:	b745                	j	de6 <TIM3_IRQHandler_Real+0xb6>

00000e48 <USBH_AnalyseType>:
     e48:	00454703          	lbu	a4,4(a0)
     e4c:	46a1                	li	a3,8
     e4e:	00d70663          	beq	a4,a3,e5a <USBH_AnalyseType+0x12>
     e52:	00e5c783          	lbu	a5,14(a1)
     e56:	00d79663          	bne	a5,a3,e62 <USBH_AnalyseType+0x1a>
     e5a:	47a1                	li	a5,8
     e5c:	00f60023          	sb	a5,0(a2)
     e60:	8082                	ret
     e62:	469d                	li	a3,7
     e64:	00d70463          	beq	a4,a3,e6c <USBH_AnalyseType+0x24>
     e68:	00d79463          	bne	a5,a3,e70 <USBH_AnalyseType+0x28>
     e6c:	479d                	li	a5,7
     e6e:	b7fd                	j	e5c <USBH_AnalyseType+0x14>
     e70:	468d                	li	a3,3
     e72:	00d70463          	beq	a4,a3,e7a <USBH_AnalyseType+0x32>
     e76:	00d79463          	bne	a5,a3,e7e <USBH_AnalyseType+0x36>
     e7a:	478d                	li	a5,3
     e7c:	b7c5                	j	e5c <USBH_AnalyseType+0x14>
     e7e:	46a5                	li	a3,9
     e80:	00d70463          	beq	a4,a3,e88 <USBH_AnalyseType+0x40>
     e84:	00d79463          	bne	a5,a3,e8c <USBH_AnalyseType+0x44>
     e88:	47a5                	li	a5,9
     e8a:	bfc9                	j	e5c <USBH_AnalyseType+0x14>
     e8c:	57fd                	li	a5,-1
     e8e:	b7f9                	j	e5c <USBH_AnalyseType+0x14>

00000e90 <USBH_EnumRootDevice>:
     e90:	ab0ff2ef          	jal	t0,140 <__riscv_save_12>
     e94:	200014b7          	lui	s1,0x20001
     e98:	2c848493          	addi	s1,s1,712 # 200012c8 <RootHubDev>
     e9c:	1141                	addi	sp,sp,-16
     e9e:	4401                	li	s0,0
     ea0:	8bc18a13          	addi	s4,gp,-1860 # 20000294 <Device_Descriptor>
     ea4:	f8818b13          	addi	s6,gp,-120 # 20000960 <Com_Buf>
     ea8:	00148b93          	addi	s7,s1,1
     eac:	06400513          	li	a0,100
     eb0:	6c5030ef          	jal	ra,4d74 <Delay_Ms>
     eb4:	0405                	addi	s0,s0,1
     eb6:	0ff47413          	andi	s0,s0,255
     eba:	4521                	li	a0,8
     ebc:	00851533          	sll	a0,a0,s0
     ec0:	6b5030ef          	jal	ra,4d74 <Delay_Ms>
     ec4:	4501                	li	a0,0
     ec6:	4e0010ef          	jal	ra,23a6 <USBFSH_ResetRootHubPort>
     eca:	4901                	li	s2,0
     ecc:	4981                	li	s3,0
     ece:	00348c93          	addi	s9,s1,3
     ed2:	4d19                	li	s10,6
     ed4:	06400c13          	li	s8,100
     ed8:	8566                	mv	a0,s9
     eda:	52a010ef          	jal	ra,2404 <USBFSH_EnableRootHubPort>
     ede:	e519                	bnez	a0,eec <USBH_EnumRootDevice+0x5c>
     ee0:	0985                	addi	s3,s3,1
     ee2:	0ff9f993          	andi	s3,s3,255
     ee6:	0d3d6e63          	bltu	s10,s3,fc2 <USBH_EnumRootDevice+0x132>
     eea:	4901                	li	s2,0
     eec:	0905                	addi	s2,s2,1
     eee:	0942                	slli	s2,s2,0x10
     ef0:	4505                	li	a0,1
     ef2:	01095913          	srli	s2,s2,0x10
     ef6:	67f030ef          	jal	ra,4d74 <Delay_Ms>
     efa:	fd891fe3          	bne	s2,s8,ed8 <USBH_EnumRootDevice+0x48>
     efe:	4795                	li	a5,5
     f00:	fa87f6e3          	bgeu	a5,s0,eac <USBH_EnumRootDevice+0x1c>
     f04:	4559                	li	a0,22
     f06:	a8d5                	j	ffa <USBH_EnumRootDevice+0x16a>
     f08:	0044c503          	lbu	a0,4(s1)
     f0c:	4989                	li	s3,2
     f0e:	4589                	li	a1,2
     f10:	01348123          	sb	s3,2(s1)
     f14:	117010ef          	jal	ra,282a <USBFSH_SetUsbAddress>
     f18:	e925                	bnez	a0,f88 <USBH_EnumRootDevice+0xf8>
     f1a:	4515                	li	a0,5
     f1c:	01348123          	sb	s3,2(s1)
     f20:	655030ef          	jal	ra,4d74 <Delay_Ms>
     f24:	0044c503          	lbu	a0,4(s1)
     f28:	00e10693          	addi	a3,sp,14
     f2c:	40000613          	li	a2,1024
     f30:	f8818593          	addi	a1,gp,-120 # 20000960 <Com_Buf>
     f34:	021010ef          	jal	ra,2754 <USBFSH_GetConfigDescr>
     f38:	00e15983          	lhu	s3,14(sp)
     f3c:	8daa                	mv	s11,a0
     f3e:	854e                	mv	a0,s3
     f40:	72f030ef          	jal	ra,4e6e <malloc>
     f44:	39c18c13          	addi	s8,gp,924 # 20000d74 <Hid_Descriptor>
     f48:	00ac2023          	sw	a0,0(s8)
     f4c:	8d2a                	mv	s10,a0
     f4e:	854e                	mv	a0,s3
     f50:	71f030ef          	jal	ra,4e6e <malloc>
     f54:	8b418c93          	addi	s9,gp,-1868 # 2000028c <Config_Descriptor_KB>
     f58:	00aca023          	sw	a0,0(s9)
     f5c:	ed05                	bnez	a0,f94 <USBH_EnumRootDevice+0x104>
     f5e:	040d9c63          	bnez	s11,fb6 <USBH_EnumRootDevice+0x126>
     f62:	85da                	mv	a1,s6
     f64:	38818513          	addi	a0,gp,904 # 20000d60 <DevDesc_Buf>
     f68:	865e                	mv	a2,s7
     f6a:	005b4983          	lbu	s3,5(s6)
     f6e:	3de9                	jal	e48 <USBH_AnalyseType>
     f70:	0044c503          	lbu	a0,4(s1)
     f74:	85ce                	mv	a1,s3
     f76:	0f1010ef          	jal	ra,2866 <USBFSH_SetUsbConfig>
     f7a:	c141                	beqz	a0,ffa <USBH_EnumRootDevice+0x16a>
     f7c:	4795                	li	a5,5
     f7e:	f287f7e3          	bgeu	a5,s0,eac <USBH_EnumRootDevice+0x1c>
     f82:	0fb00513          	li	a0,251
     f86:	a895                	j	ffa <USBH_EnumRootDevice+0x16a>
     f88:	4795                	li	a5,5
     f8a:	f287f1e3          	bgeu	a5,s0,eac <USBH_EnumRootDevice+0x1c>
     f8e:	04600513          	li	a0,70
     f92:	a0a5                	j	ffa <USBH_EnumRootDevice+0x16a>
     f94:	864e                	mv	a2,s3
     f96:	f8818593          	addi	a1,gp,-120 # 20000960 <Com_Buf>
     f9a:	6f9030ef          	jal	ra,4e92 <memcpy>
     f9e:	864e                	mv	a2,s3
     fa0:	f8818593          	addi	a1,gp,-120 # 20000960 <Com_Buf>
     fa4:	856a                	mv	a0,s10
     fa6:	013c9223          	sh	s3,4(s9)
     faa:	6e9030ef          	jal	ra,4e92 <memcpy>
     fae:	47a5                	li	a5,9
     fb0:	00fc1223          	sh	a5,4(s8)
     fb4:	b76d                	j	f5e <USBH_EnumRootDevice+0xce>
     fb6:	4795                	li	a5,5
     fb8:	ee87fae3          	bgeu	a5,s0,eac <USBH_EnumRootDevice+0x1c>
     fbc:	04700513          	li	a0,71
     fc0:	a82d                	j	ffa <USBH_EnumRootDevice+0x16a>
     fc2:	38818593          	addi	a1,gp,904 # 20000d60 <DevDesc_Buf>
     fc6:	00448513          	addi	a0,s1,4
     fca:	73e010ef          	jal	ra,2708 <USBFSH_GetDeviceDescr>
     fce:	89aa                	mv	s3,a0
     fd0:	4549                	li	a0,18
     fd2:	69d030ef          	jal	ra,4e6e <malloc>
     fd6:	00aa2023          	sw	a0,0(s4)
     fda:	c909                	beqz	a0,fec <USBH_EnumRootDevice+0x15c>
     fdc:	4649                	li	a2,18
     fde:	38818593          	addi	a1,gp,904 # 20000d60 <DevDesc_Buf>
     fe2:	6b1030ef          	jal	ra,4e92 <memcpy>
     fe6:	47c9                	li	a5,18
     fe8:	00fa1223          	sh	a5,4(s4)
     fec:	f0098ee3          	beqz	s3,f08 <USBH_EnumRootDevice+0x78>
     ff0:	4795                	li	a5,5
     ff2:	ea87fde3          	bgeu	a5,s0,eac <USBH_EnumRootDevice+0x1c>
     ff6:	04500513          	li	a0,69
     ffa:	0141                	addi	sp,sp,16
     ffc:	980ff06f          	j	17c <__riscv_restore_12>

00001000 <KM_AnalyzeConfigDesc>:
    1000:	948ff2ef          	jal	t0,148 <__riscv_save_10>
    1004:	10a00a13          	li	s4,266
    1008:	03450a33          	mul	s4,a0,s4
    100c:	3ac18993          	addi	s3,gp,940 # 20000d84 <HostCtl>
    1010:	8aaa                	mv	s5,a0
    1012:	8c2e                	mv	s8,a1
    1014:	4481                	li	s1,0
    1016:	4401                	li	s0,0
    1018:	f8818913          	addi	s2,gp,-120 # 20000960 <Com_Buf>
    101c:	01498bb3          	add	s7,s3,s4
    1020:	00394783          	lbu	a5,3(s2)
    1024:	00294703          	lbu	a4,2(s2)
    1028:	07a2                	slli	a5,a5,0x8
    102a:	97ba                	add	a5,a5,a4
    102c:	1ef45963          	bge	s0,a5,121e <KM_AnalyzeConfigDesc+0x21e>
    1030:	008907b3          	add	a5,s2,s0
    1034:	0017c703          	lbu	a4,1(a5)
    1038:	4609                	li	a2,2
    103a:	02c71463          	bne	a4,a2,1062 <KM_AnalyzeConfigDesc+0x62>
    103e:	0047c783          	lbu	a5,4(a5)
    1042:	4711                	li	a4,4
    1044:	00f77c63          	bgeu	a4,a5,105c <KM_AnalyzeConfigDesc+0x5c>
    1048:	00eb8023          	sb	a4,0(s7)
    104c:	008907b3          	add	a5,s2,s0
    1050:	0007c783          	lbu	a5,0(a5)
    1054:	943e                	add	s0,s0,a5
    1056:	0442                	slli	s0,s0,0x10
    1058:	8041                	srli	s0,s0,0x10
    105a:	b7d9                	j	1020 <KM_AnalyzeConfigDesc+0x20>
    105c:	00fb8023          	sb	a5,0(s7)
    1060:	b7f5                	j	104c <KM_AnalyzeConfigDesc+0x4c>
    1062:	4691                	li	a3,4
    1064:	fed716e3          	bne	a4,a3,1050 <KM_AnalyzeConfigDesc+0x50>
    1068:	1ae48b63          	beq	s1,a4,121e <KM_AnalyzeConfigDesc+0x21e>
    106c:	0057c683          	lbu	a3,5(a5)
    1070:	470d                	li	a4,3
    1072:	18e69763          	bne	a3,a4,1200 <KM_AnalyzeConfigDesc+0x200>
    1076:	0067c703          	lbu	a4,6(a5)
    107a:	4685                	li	a3,1
    107c:	16e6e163          	bltu	a3,a4,11de <KM_AnalyzeConfigDesc+0x1de>
    1080:	0077c703          	lbu	a4,7(a5)
    1084:	14e66d63          	bltu	a2,a4,11de <KM_AnalyzeConfigDesc+0x1de>
    1088:	0cd71363          	bne	a4,a3,114e <KM_AnalyzeConfigDesc+0x14e>
    108c:	04200793          	li	a5,66
    1090:	02f487b3          	mul	a5,s1,a5
    1094:	80018223          	sb	zero,-2044(gp) # 200001dc <new_descripter>
    1098:	97d2                	add	a5,a5,s4
    109a:	97ce                	add	a5,a5,s3
    109c:	00e78123          	sb	a4,2(a5)
    10a0:	008907b3          	add	a5,s2,s0
    10a4:	0007c783          	lbu	a5,0(a5)
    10a8:	02100893          	li	a7,33
    10ac:	08500713          	li	a4,133
    10b0:	943e                	add	s0,s0,a5
    10b2:	04200793          	li	a5,66
    10b6:	02f487b3          	mul	a5,s1,a5
    10ba:	00294303          	lbu	t1,2(s2)
    10be:	0442                	slli	s0,s0,0x10
    10c0:	8041                	srli	s0,s0,0x10
    10c2:	4681                	li	a3,0
    10c4:	4501                	li	a0,0
    10c6:	4e11                	li	t3,4
    10c8:	4e95                	li	t4,5
    10ca:	03148833          	mul	a6,s1,a7
    10ce:	97d2                	add	a5,a5,s4
    10d0:	97ce                	add	a5,a5,s3
    10d2:	02ea8733          	mul	a4,s5,a4
    10d6:	983a                	add	a6,a6,a4
    10d8:	00890733          	add	a4,s2,s0
    10dc:	00174603          	lbu	a2,1(a4)
    10e0:	0dc60b63          	beq	a2,t3,11b6 <KM_AnalyzeConfigDesc+0x1b6>
    10e4:	0c647963          	bgeu	s0,t1,11b6 <KM_AnalyzeConfigDesc+0x1b6>
    10e8:	00074583          	lbu	a1,0(a4)
    10ec:	942e                	add	s0,s0,a1
    10ee:	0442                	slli	s0,s0,0x10
    10f0:	8041                	srli	s0,s0,0x10
    10f2:	0bd61763          	bne	a2,t4,11a0 <KM_AnalyzeConfigDesc+0x1a0>
    10f6:	00574603          	lbu	a2,5(a4)
    10fa:	00274583          	lbu	a1,2(a4)
    10fe:	00474f03          	lbu	t5,4(a4)
    1102:	0622                	slli	a2,a2,0x8
    1104:	00f5f293          	andi	t0,a1,15
    1108:	967a                	add	a2,a2,t5
    110a:	05e2                	slli	a1,a1,0x18
    110c:	0642                	slli	a2,a2,0x10
    110e:	85e1                	srai	a1,a1,0x18
    1110:	00374f83          	lbu	t6,3(a4)
    1114:	8241                	srli	a2,a2,0x10
    1116:	0405df63          	bgez	a1,1174 <KM_AnalyzeConfigDesc+0x174>
    111a:	00674703          	lbu	a4,6(a4)
    111e:	00a78f33          	add	t5,a5,a0
    1122:	00a805b3          	add	a1,a6,a0
    1126:	00ef0f23          	sb	a4,30(t5)
    112a:	0087c703          	lbu	a4,8(a5)
    112e:	05a1                	addi	a1,a1,8
    1130:	0586                	slli	a1,a1,0x1
    1132:	95ce                	add	a1,a1,s3
    1134:	0705                	addi	a4,a4,1
    1136:	0505                	addi	a0,a0,1
    1138:	005f04a3          	sb	t0,9(t5)
    113c:	01ff06a3          	sb	t6,13(t5)
    1140:	00c59123          	sh	a2,2(a1)
    1144:	00e78423          	sb	a4,8(a5)
    1148:	0ff57513          	andi	a0,a0,255
    114c:	b771                	j	10d8 <KM_AnalyzeConfigDesc+0xd8>
    114e:	f4c719e3          	bne	a4,a2,10a0 <KM_AnalyzeConfigDesc+0xa0>
    1152:	04200793          	li	a5,66
    1156:	02f487b3          	mul	a5,s1,a5
    115a:	80d18223          	sb	a3,-2044(gp) # 200001dc <new_descripter>
    115e:	4601                	li	a2,0
    1160:	4681                	li	a3,0
    1162:	85a6                	mv	a1,s1
    1164:	8562                	mv	a0,s8
    1166:	97d2                	add	a5,a5,s4
    1168:	97ce                	add	a5,a5,s3
    116a:	00e78123          	sb	a4,2(a5)
    116e:	043010ef          	jal	ra,29b0 <HID_SetIdle>
    1172:	b73d                	j	10a0 <KM_AnalyzeConfigDesc+0xa0>
    1174:	00d78733          	add	a4,a5,a3
    1178:	025703a3          	sb	t0,39(a4)
    117c:	03f705a3          	sb	t6,43(a4)
    1180:	00d80733          	add	a4,a6,a3
    1184:	0741                	addi	a4,a4,16
    1186:	0706                	slli	a4,a4,0x1
    1188:	974e                	add	a4,a4,s3
    118a:	00c71823          	sh	a2,16(a4)
    118e:	0267c703          	lbu	a4,38(a5)
    1192:	0685                	addi	a3,a3,1
    1194:	0ff6f693          	andi	a3,a3,255
    1198:	0705                	addi	a4,a4,1
    119a:	02e78323          	sb	a4,38(a5)
    119e:	bf2d                	j	10d8 <KM_AnalyzeConfigDesc+0xd8>
    11a0:	f3161ce3          	bne	a2,a7,10d8 <KM_AnalyzeConfigDesc+0xd8>
    11a4:	00874603          	lbu	a2,8(a4)
    11a8:	00774703          	lbu	a4,7(a4)
    11ac:	0622                	slli	a2,a2,0x8
    11ae:	8f51                	or	a4,a4,a2
    11b0:	00e79223          	sh	a4,4(a5)
    11b4:	b715                	j	10d8 <KM_AnalyzeConfigDesc+0xd8>
    11b6:	4785                	li	a5,1
    11b8:	00f69f63          	bne	a3,a5,11d6 <KM_AnalyzeConfigDesc+0x1d6>
    11bc:	04200793          	li	a5,66
    11c0:	02f487b3          	mul	a5,s1,a5
    11c4:	97d2                	add	a5,a5,s4
    11c6:	97ce                	add	a5,a5,s3
    11c8:	0027c703          	lbu	a4,2(a5)
    11cc:	00d71563          	bne	a4,a3,11d6 <KM_AnalyzeConfigDesc+0x1d6>
    11d0:	577d                	li	a4,-1
    11d2:	04e78023          	sb	a4,64(a5)
    11d6:	0485                	addi	s1,s1,1
    11d8:	0ff4f493          	andi	s1,s1,255
    11dc:	b591                	j	1020 <KM_AnalyzeConfigDesc+0x20>
    11de:	04200793          	li	a5,66
    11e2:	02f487b3          	mul	a5,s1,a5
    11e6:	577d                	li	a4,-1
    11e8:	97d2                	add	a5,a5,s4
    11ea:	97ce                	add	a5,a5,s3
    11ec:	00e78123          	sb	a4,2(a5)
    11f0:	008907b3          	add	a5,s2,s0
    11f4:	0007c783          	lbu	a5,0(a5)
    11f8:	943e                	add	s0,s0,a5
    11fa:	0442                	slli	s0,s0,0x10
    11fc:	8041                	srli	s0,s0,0x10
    11fe:	bfe1                	j	11d6 <KM_AnalyzeConfigDesc+0x1d6>
    1200:	04200793          	li	a5,66
    1204:	02f484b3          	mul	s1,s1,a5
    1208:	10a00793          	li	a5,266
    120c:	02fa8ab3          	mul	s5,s5,a5
    1210:	57fd                	li	a5,-1
    1212:	9aa6                	add	s5,s5,s1
    1214:	3ac18493          	addi	s1,gp,940 # 20000d84 <HostCtl>
    1218:	94d6                	add	s1,s1,s5
    121a:	00f48123          	sb	a5,2(s1)
    121e:	4501                	li	a0,0
    1220:	f61fe06f          	j	180 <__riscv_restore_10>

00001224 <KM_AnalyzeHidReportDesc>:
    1224:	f881c683          	lbu	a3,-120(gp) # 20000960 <Com_Buf>
    1228:	4795                	li	a5,5
    122a:	18f69b63          	bne	a3,a5,13c0 <KM_AnalyzeHidReportDesc+0x19c>
    122e:	f8818713          	addi	a4,gp,-120 # 20000960 <Com_Buf>
    1232:	00174683          	lbu	a3,1(a4)
    1236:	4785                	li	a5,1
    1238:	18f69463          	bne	a3,a5,13c0 <KM_AnalyzeHidReportDesc+0x19c>
    123c:	00274683          	lbu	a3,2(a4)
    1240:	47a5                	li	a5,9
    1242:	16f69f63          	bne	a3,a5,13c0 <KM_AnalyzeHidReportDesc+0x19c>
    1246:	00374683          	lbu	a3,3(a4)
    124a:	4799                	li	a5,6
    124c:	16f69a63          	bne	a3,a5,13c0 <KM_AnalyzeHidReportDesc+0x19c>
    1250:	04200693          	li	a3,66
    1254:	10a00813          	li	a6,266
    1258:	03050833          	mul	a6,a0,a6
    125c:	3ac18613          	addi	a2,gp,940 # 20000d84 <HostCtl>
    1260:	1101                	addi	sp,sp,-32
    1262:	ce22                	sw	s0,28(sp)
    1264:	cc26                	sw	s1,24(sp)
    1266:	ca4a                	sw	s2,20(sp)
    1268:	c84e                	sw	s3,16(sp)
    126a:	c652                	sw	s4,12(sp)
    126c:	c456                	sw	s5,8(sp)
    126e:	02d586b3          	mul	a3,a1,a3
    1272:	c25a                	sw	s6,4(sp)
    1274:	c05e                	sw	s7,0(sp)
    1276:	4791                	li	a5,4
    1278:	4301                	li	t1,0
    127a:	4e81                	li	t4,0
    127c:	4f01                	li	t5,0
    127e:	4e01                	li	t3,0
    1280:	3ac18893          	addi	a7,gp,940 # 20000d84 <HostCtl>
    1284:	4411                	li	s0,4
    1286:	96c2                	add	a3,a3,a6
    1288:	9636                	add	a2,a2,a3
    128a:	00465383          	lhu	t2,4(a2)
    128e:	4801                	li	a6,0
    1290:	07000f93          	li	t6,112
    1294:	08000493          	li	s1,128
    1298:	09000293          	li	t0,144
    129c:	4921                	li	s2,8
    129e:	49c1                	li	s3,16
    12a0:	02000a13          	li	s4,32
    12a4:	4a85                	li	s5,1
    12a6:	0477e063          	bltu	a5,t2,12e6 <KM_AnalyzeHidReportDesc+0xc2>
    12aa:	47a1                	li	a5,8
    12ac:	0ef31d63          	bne	t1,a5,13a6 <KM_AnalyzeHidReportDesc+0x182>
    12b0:	04200793          	li	a5,66
    12b4:	10a00713          	li	a4,266
    12b8:	02f587b3          	mul	a5,a1,a5
    12bc:	02e50733          	mul	a4,a0,a4
    12c0:	97ba                	add	a5,a5,a4
    12c2:	00f885b3          	add	a1,a7,a5
    12c6:	0405c783          	lbu	a5,64(a1)
    12ca:	e781                	bnez	a5,12d2 <KM_AnalyzeHidReportDesc+0xae>
    12cc:	4785                	li	a5,1
    12ce:	04f58023          	sb	a5,64(a1)
    12d2:	4472                	lw	s0,28(sp)
    12d4:	44e2                	lw	s1,24(sp)
    12d6:	4952                	lw	s2,20(sp)
    12d8:	49c2                	lw	s3,16(sp)
    12da:	4a32                	lw	s4,12(sp)
    12dc:	4aa2                	lw	s5,8(sp)
    12de:	4b12                	lw	s6,4(sp)
    12e0:	4b82                	lw	s7,0(sp)
    12e2:	6105                	addi	sp,sp,32
    12e4:	8082                	ret
    12e6:	00f706b3          	add	a3,a4,a5
    12ea:	0006c683          	lbu	a3,0(a3)
    12ee:	0785                	addi	a5,a5,1
    12f0:	07c2                	slli	a5,a5,0x10
    12f2:	00c6fb93          	andi	s7,a3,12
    12f6:	0036fb13          	andi	s6,a3,3
    12fa:	83c1                	srli	a5,a5,0x10
    12fc:	0f06f693          	andi	a3,a3,240
    1300:	028b8d63          	beq	s7,s0,133a <KM_AnalyzeHidReportDesc+0x116>
    1304:	072b8b63          	beq	s7,s2,137a <KM_AnalyzeHidReportDesc+0x156>
    1308:	020b9563          	bnez	s7,1332 <KM_AnalyzeHidReportDesc+0x10e>
    130c:	02569363          	bne	a3,t0,1332 <KM_AnalyzeHidReportDesc+0x10e>
    1310:	02080163          	beqz	a6,1332 <KM_AnalyzeHidReportDesc+0x10e>
    1314:	03ee86b3          	mul	a3,t4,t5
    1318:	9336                	add	t1,t1,a3
    131a:	0342                	slli	t1,t1,0x10
    131c:	01035313          	srli	t1,t1,0x10
    1320:	000e0963          	beqz	t3,1332 <KM_AnalyzeHidReportDesc+0x10e>
    1324:	03c64683          	lbu	a3,60(a2)
    1328:	e689                	bnez	a3,1332 <KM_AnalyzeHidReportDesc+0x10e>
    132a:	03560e23          	sb	s5,60(a2)
    132e:	03c60ea3          	sb	t3,61(a2)
    1332:	97da                	add	a5,a5,s6
    1334:	07c2                	slli	a5,a5,0x10
    1336:	83c1                	srli	a5,a5,0x10
    1338:	b7bd                	j	12a6 <KM_AnalyzeHidReportDesc+0x82>
    133a:	03f68b63          	beq	a3,t6,1370 <KM_AnalyzeHidReportDesc+0x14c>
    133e:	00dfeb63          	bltu	t6,a3,1354 <KM_AnalyzeHidReportDesc+0x130>
    1342:	fae5                	bnez	a3,1332 <KM_AnalyzeHidReportDesc+0x10e>
    1344:	00f706b3          	add	a3,a4,a5
    1348:	0006c803          	lbu	a6,0(a3)
    134c:	1861                	addi	a6,a6,-8
    134e:	00183813          	seqz	a6,a6
    1352:	b7c5                	j	1332 <KM_AnalyzeHidReportDesc+0x10e>
    1354:	00968963          	beq	a3,s1,1366 <KM_AnalyzeHidReportDesc+0x142>
    1358:	fc569de3          	bne	a3,t0,1332 <KM_AnalyzeHidReportDesc+0x10e>
    135c:	00f706b3          	add	a3,a4,a5
    1360:	0006ce83          	lbu	t4,0(a3)
    1364:	b7f9                	j	1332 <KM_AnalyzeHidReportDesc+0x10e>
    1366:	00f706b3          	add	a3,a4,a5
    136a:	0006ce03          	lbu	t3,0(a3)
    136e:	b7d1                	j	1332 <KM_AnalyzeHidReportDesc+0x10e>
    1370:	00f706b3          	add	a3,a4,a5
    1374:	0006cf03          	lbu	t5,0(a3)
    1378:	bf6d                	j	1332 <KM_AnalyzeHidReportDesc+0x10e>
    137a:	01368d63          	beq	a3,s3,1394 <KM_AnalyzeHidReportDesc+0x170>
    137e:	fb469ae3          	bne	a3,s4,1332 <KM_AnalyzeHidReportDesc+0x10e>
    1382:	fa0808e3          	beqz	a6,1332 <KM_AnalyzeHidReportDesc+0x10e>
    1386:	00f706b3          	add	a3,a4,a5
    138a:	0006c683          	lbu	a3,0(a3)
    138e:	02d60fa3          	sb	a3,63(a2)
    1392:	b745                	j	1332 <KM_AnalyzeHidReportDesc+0x10e>
    1394:	f8080fe3          	beqz	a6,1332 <KM_AnalyzeHidReportDesc+0x10e>
    1398:	00f706b3          	add	a3,a4,a5
    139c:	0006c683          	lbu	a3,0(a3)
    13a0:	02d60f23          	sb	a3,62(a2)
    13a4:	b779                	j	1332 <KM_AnalyzeHidReportDesc+0x10e>
    13a6:	04200793          	li	a5,66
    13aa:	02f587b3          	mul	a5,a1,a5
    13ae:	10a00593          	li	a1,266
    13b2:	02b50533          	mul	a0,a0,a1
    13b6:	97aa                	add	a5,a5,a0
    13b8:	97c6                	add	a5,a5,a7
    13ba:	04078023          	sb	zero,64(a5)
    13be:	bf11                	j	12d2 <KM_AnalyzeHidReportDesc+0xae>
    13c0:	8082                	ret

000013c2 <KM_DealHidReportDesc>:
    13c2:	d7ffe2ef          	jal	t0,140 <__riscv_save_12>
    13c6:	10a00493          	li	s1,266
    13ca:	029504b3          	mul	s1,a0,s1
    13ce:	3ac18a13          	addi	s4,gp,940 # 20000d84 <HostCtl>
    13d2:	1141                	addi	sp,sp,-16
    13d4:	20001b37          	lui	s6,0x20001
    13d8:	8baa                	mv	s7,a0
    13da:	c42e                	sw	a1,8(sp)
    13dc:	4a81                	li	s5,0
    13de:	3ac18993          	addi	s3,gp,940 # 20000d84 <HostCtl>
    13e2:	9a26                	add	s4,s4,s1
    13e4:	000a4403          	lbu	s0,0(s4)
    13e8:	00448c93          	addi	s9,s1,4
    13ec:	2b8b0b13          	addi	s6,s6,696 # 200012b8 <Report_Descriptor>
    13f0:	20000db7          	lui	s11,0x20000
    13f4:	c051                	beqz	s0,1478 <KM_DealHidReportDesc+0xb6>
    13f6:	000a4903          	lbu	s2,0(s4)
    13fa:	04200693          	li	a3,66
    13fe:	40890933          	sub	s2,s2,s0
    1402:	0ff97913          	andi	s2,s2,255
    1406:	02d906b3          	mul	a3,s2,a3
    140a:	009687b3          	add	a5,a3,s1
    140e:	97ce                	add	a5,a5,s3
    1410:	0047d783          	lhu	a5,4(a5)
    1414:	cbb1                	beqz	a5,1468 <KM_DealHidReportDesc+0xa6>
    1416:	96e6                	add	a3,a3,s9
    1418:	00d987b3          	add	a5,s3,a3
    141c:	4522                	lw	a0,8(sp)
    141e:	86be                	mv	a3,a5
    1420:	f8818613          	addi	a2,gp,-120 # 20000960 <Com_Buf>
    1424:	85ca                	mv	a1,s2
    1426:	c63e                	sw	a5,12(sp)
    1428:	0a85                	addi	s5,s5,1
    142a:	526010ef          	jal	ra,2950 <HID_GetHidDesr>
    142e:	0ffafa93          	andi	s5,s5,255
    1432:	47b2                	lw	a5,12(sp)
    1434:	4715                	li	a4,5
    1436:	ed0d                	bnez	a0,1470 <KM_DealHidReportDesc+0xae>
    1438:	04200793          	li	a5,66
    143c:	02f907b3          	mul	a5,s2,a5
    1440:	97a6                	add	a5,a5,s1
    1442:	97ce                	add	a5,a5,s3
    1444:	0047dc03          	lhu	s8,4(a5)
    1448:	8562                	mv	a0,s8
    144a:	225030ef          	jal	ra,4e6e <malloc>
    144e:	00ab2023          	sw	a0,0(s6)
    1452:	c901                	beqz	a0,1462 <KM_DealHidReportDesc+0xa0>
    1454:	8662                	mv	a2,s8
    1456:	06cd8593          	addi	a1,s11,108 # 2000006c <USBD_KeyRepDesc>
    145a:	239030ef          	jal	ra,4e92 <memcpy>
    145e:	018b1223          	sh	s8,4(s6)
    1462:	85ca                	mv	a1,s2
    1464:	855e                	mv	a0,s7
    1466:	3b7d                	jal	1224 <KM_AnalyzeHidReportDesc>
    1468:	147d                	addi	s0,s0,-1
    146a:	0ff47413          	andi	s0,s0,255
    146e:	b759                	j	13f4 <KM_DealHidReportDesc+0x32>
    1470:	fb5776e3          	bgeu	a4,s5,141c <KM_DealHidReportDesc+0x5a>
    1474:	04800413          	li	s0,72
    1478:	8522                	mv	a0,s0
    147a:	0141                	addi	sp,sp,16
    147c:	d01fe06f          	j	17c <__riscv_restore_12>

00001480 <HUB_AnalyzeConfigDesc>:
    1480:	10a00713          	li	a4,266
    1484:	02e50533          	mul	a0,a0,a4
    1488:	f8818793          	addi	a5,gp,-120 # 20000960 <Com_Buf>
    148c:	0037c603          	lbu	a2,3(a5)
    1490:	0027c783          	lbu	a5,2(a5)
    1494:	0622                	slli	a2,a2,0x8
    1496:	3ac18693          	addi	a3,gp,940 # 20000d84 <HostCtl>
    149a:	963e                	add	a2,a2,a5
    149c:	f8818593          	addi	a1,gp,-120 # 20000960 <Com_Buf>
    14a0:	4781                	li	a5,0
    14a2:	4309                	li	t1,2
    14a4:	4811                	li	a6,4
    14a6:	4e25                	li	t3,9
    14a8:	4e95                	li	t4,5
    14aa:	9536                	add	a0,a0,a3
    14ac:	4885                	li	a7,1
    14ae:	00c7c463          	blt	a5,a2,14b6 <HUB_AnalyzeConfigDesc+0x36>
    14b2:	4501                	li	a0,0
    14b4:	8082                	ret
    14b6:	00f58733          	add	a4,a1,a5
    14ba:	00074f03          	lbu	t5,0(a4)
    14be:	00174683          	lbu	a3,1(a4)
    14c2:	97fa                	add	a5,a5,t5
    14c4:	07c2                	slli	a5,a5,0x10
    14c6:	83c1                	srli	a5,a5,0x10
    14c8:	00669c63          	bne	a3,t1,14e0 <HUB_AnalyzeConfigDesc+0x60>
    14cc:	00474703          	lbu	a4,4(a4)
    14d0:	00e8f563          	bgeu	a7,a4,14da <HUB_AnalyzeConfigDesc+0x5a>
    14d4:	01150023          	sb	a7,0(a0)
    14d8:	bfd9                	j	14ae <HUB_AnalyzeConfigDesc+0x2e>
    14da:	00e50023          	sb	a4,0(a0)
    14de:	bfc1                	j	14ae <HUB_AnalyzeConfigDesc+0x2e>
    14e0:	fd0697e3          	bne	a3,a6,14ae <HUB_AnalyzeConfigDesc+0x2e>
    14e4:	00574703          	lbu	a4,5(a4)
    14e8:	fdc713e3          	bne	a4,t3,14ae <HUB_AnalyzeConfigDesc+0x2e>
    14ec:	00f58733          	add	a4,a1,a5
    14f0:	00174683          	lbu	a3,1(a4)
    14f4:	fb068de3          	beq	a3,a6,14ae <HUB_AnalyzeConfigDesc+0x2e>
    14f8:	fac7dbe3          	bge	a5,a2,14ae <HUB_AnalyzeConfigDesc+0x2e>
    14fc:	00074f03          	lbu	t5,0(a4)
    1500:	97fa                	add	a5,a5,t5
    1502:	07c2                	slli	a5,a5,0x10
    1504:	83c1                	srli	a5,a5,0x10
    1506:	ffd693e3          	bne	a3,t4,14ec <HUB_AnalyzeConfigDesc+0x6c>
    150a:	00274683          	lbu	a3,2(a4)
    150e:	01869f13          	slli	t5,a3,0x18
    1512:	418f5f13          	srai	t5,t5,0x18
    1516:	fc0f5be3          	bgez	t5,14ec <HUB_AnalyzeConfigDesc+0x6c>
    151a:	8abd                	andi	a3,a3,15
    151c:	00d504a3          	sb	a3,9(a0)
    1520:	00374683          	lbu	a3,3(a4)
    1524:	00474f03          	lbu	t5,4(a4)
    1528:	00d506a3          	sb	a3,13(a0)
    152c:	00574683          	lbu	a3,5(a4)
    1530:	00674703          	lbu	a4,6(a4)
    1534:	06a2                	slli	a3,a3,0x8
    1536:	00e50f23          	sb	a4,30(a0)
    153a:	00854703          	lbu	a4,8(a0)
    153e:	96fa                	add	a3,a3,t5
    1540:	00d51923          	sh	a3,18(a0)
    1544:	0705                	addi	a4,a4,1
    1546:	00e50423          	sb	a4,8(a0)
    154a:	b74d                	j	14ec <HUB_AnalyzeConfigDesc+0x6c>

0000154c <USBH_EnumHubDevice>:
    154c:	c0bfe2ef          	jal	t0,156 <__riscv_save_4>
    1550:	20001437          	lui	s0,0x20001
    1554:	2c840793          	addi	a5,s0,712 # 200012c8 <RootHubDev>
    1558:	0057c503          	lbu	a0,5(a5)
    155c:	1141                	addi	sp,sp,-16
    155e:	370d                	jal	1480 <HUB_AnalyzeConfigDesc>
    1560:	892a                	mv	s2,a0
    1562:	16051c63          	bnez	a0,16da <USBH_EnumHubDevice+0x18e>
    1566:	f8818793          	addi	a5,gp,-120 # 20000960 <Com_Buf>
    156a:	0067c583          	lbu	a1,6(a5)
    156e:	2c840413          	addi	s0,s0,712
    1572:	f8818993          	addi	s3,gp,-120 # 20000960 <Com_Buf>
    1576:	c995                	beqz	a1,15aa <USBH_EnumHubDevice+0x5e>
    1578:	00444503          	lbu	a0,4(s0)
    157c:	f8818613          	addi	a2,gp,-120 # 20000960 <Com_Buf>
    1580:	20001937          	lui	s2,0x20001
    1584:	246010ef          	jal	ra,27ca <USBFSH_GetStrDescr>
    1588:	0009ca03          	lbu	s4,0(s3)
    158c:	2e890913          	addi	s2,s2,744 # 200012e8 <String_Descriptor>
    1590:	8552                	mv	a0,s4
    1592:	0dd030ef          	jal	ra,4e6e <malloc>
    1596:	00a92023          	sw	a0,0(s2)
    159a:	c901                	beqz	a0,15aa <USBH_EnumHubDevice+0x5e>
    159c:	8652                	mv	a2,s4
    159e:	80c18593          	addi	a1,gp,-2036 # 200001e4 <USBD_StringLangID>
    15a2:	0f1030ef          	jal	ra,4e92 <memcpy>
    15a6:	01491223          	sh	s4,4(s2)
    15aa:	38818793          	addi	a5,gp,904 # 20000d60 <DevDesc_Buf>
    15ae:	00e7c583          	lbu	a1,14(a5)
    15b2:	38818913          	addi	s2,gp,904 # 20000d60 <DevDesc_Buf>
    15b6:	cd85                	beqz	a1,15ee <USBH_EnumHubDevice+0xa2>
    15b8:	00444503          	lbu	a0,4(s0)
    15bc:	f8818613          	addi	a2,gp,-120 # 20000960 <Com_Buf>
    15c0:	20001a37          	lui	s4,0x20001
    15c4:	206010ef          	jal	ra,27ca <USBFSH_GetStrDescr>
    15c8:	0009ca83          	lbu	s5,0(s3)
    15cc:	2e8a0a13          	addi	s4,s4,744 # 200012e8 <String_Descriptor>
    15d0:	8556                	mv	a0,s5
    15d2:	09d030ef          	jal	ra,4e6e <malloc>
    15d6:	00aa2423          	sw	a0,8(s4)
    15da:	c911                	beqz	a0,15ee <USBH_EnumHubDevice+0xa2>
    15dc:	200005b7          	lui	a1,0x20000
    15e0:	4639                	li	a2,14
    15e2:	0d858593          	addi	a1,a1,216 # 200000d8 <USBD_StringVendor>
    15e6:	0ad030ef          	jal	ra,4e92 <memcpy>
    15ea:	015a1623          	sh	s5,12(s4)
    15ee:	00f94583          	lbu	a1,15(s2)
    15f2:	cd85                	beqz	a1,162a <USBH_EnumHubDevice+0xde>
    15f4:	00444503          	lbu	a0,4(s0)
    15f8:	f8818613          	addi	a2,gp,-120 # 20000960 <Com_Buf>
    15fc:	20001a37          	lui	s4,0x20001
    1600:	1ca010ef          	jal	ra,27ca <USBFSH_GetStrDescr>
    1604:	0009ca83          	lbu	s5,0(s3)
    1608:	2e8a0a13          	addi	s4,s4,744 # 200012e8 <String_Descriptor>
    160c:	8556                	mv	a0,s5
    160e:	061030ef          	jal	ra,4e6e <malloc>
    1612:	00aa2823          	sw	a0,16(s4)
    1616:	c911                	beqz	a0,162a <USBH_EnumHubDevice+0xde>
    1618:	200005b7          	lui	a1,0x20000
    161c:	8656                	mv	a2,s5
    161e:	0ac58593          	addi	a1,a1,172 # 200000ac <USBD_StringProduct>
    1622:	071030ef          	jal	ra,4e92 <memcpy>
    1626:	015a1a23          	sh	s5,20(s4)
    162a:	01094583          	lbu	a1,16(s2)
    162e:	cd85                	beqz	a1,1666 <USBH_EnumHubDevice+0x11a>
    1630:	00444503          	lbu	a0,4(s0)
    1634:	f8818613          	addi	a2,gp,-120 # 20000960 <Com_Buf>
    1638:	20001937          	lui	s2,0x20001
    163c:	18e010ef          	jal	ra,27ca <USBFSH_GetStrDescr>
    1640:	0009ca03          	lbu	s4,0(s3)
    1644:	2e890913          	addi	s2,s2,744 # 200012e8 <String_Descriptor>
    1648:	8552                	mv	a0,s4
    164a:	025030ef          	jal	ra,4e6e <malloc>
    164e:	00a92c23          	sw	a0,24(s2)
    1652:	c911                	beqz	a0,1666 <USBH_EnumHubDevice+0x11a>
    1654:	200005b7          	lui	a1,0x20000
    1658:	8652                	mv	a2,s4
    165a:	0c058593          	addi	a1,a1,192 # 200000c0 <USBD_StringSerial>
    165e:	035030ef          	jal	ra,4e92 <memcpy>
    1662:	01491e23          	sh	s4,28(s2)
    1666:	4a15                	li	s4,5
    1668:	00444503          	lbu	a0,4(s0)
    166c:	00e10613          	addi	a2,sp,14
    1670:	f8818593          	addi	a1,gp,-120 # 20000960 <Com_Buf>
    1674:	3fe010ef          	jal	ra,2a72 <HUB_GetClassDevDescr>
    1678:	892a                	mv	s2,a0
    167a:	e929                	bnez	a0,16cc <USBH_EnumHubDevice+0x180>
    167c:	0029c703          	lbu	a4,2(s3)
    1680:	4791                	li	a5,4
    1682:	04e7e263          	bltu	a5,a4,16c6 <USBH_EnumHubDevice+0x17a>
    1686:	00e40323          	sb	a4,6(s0)
    168a:	4981                	li	s3,0
    168c:	4485                	li	s1,1
    168e:	4a11                	li	s4,4
    1690:	00644783          	lbu	a5,6(s0)
    1694:	0497e363          	bltu	a5,s1,16da <USBH_EnumHubDevice+0x18e>
    1698:	00444503          	lbu	a0,4(s0)
    169c:	4621                	li	a2,8
    169e:	0ff4f593          	andi	a1,s1,255
    16a2:	3a2010ef          	jal	ra,2a44 <HUB_SetPortFeature>
    16a6:	cd01                	beqz	a0,16be <USBH_EnumHubDevice+0x172>
    16a8:	14fd                	addi	s1,s1,-1
    16aa:	0985                	addi	s3,s3,1
    16ac:	4515                	li	a0,5
    16ae:	04c2                	slli	s1,s1,0x10
    16b0:	0ff9f993          	andi	s3,s3,255
    16b4:	6c0030ef          	jal	ra,4d74 <Delay_Ms>
    16b8:	80c1                	srli	s1,s1,0x10
    16ba:	013a6e63          	bltu	s4,s3,16d6 <USBH_EnumHubDevice+0x18a>
    16be:	0485                	addi	s1,s1,1
    16c0:	04c2                	slli	s1,s1,0x10
    16c2:	80c1                	srli	s1,s1,0x10
    16c4:	b7f1                	j	1690 <USBH_EnumHubDevice+0x144>
    16c6:	00f40323          	sb	a5,6(s0)
    16ca:	b7c1                	j	168a <USBH_EnumHubDevice+0x13e>
    16cc:	1a7d                	addi	s4,s4,-1
    16ce:	0ffa7a13          	andi	s4,s4,255
    16d2:	f80a1be3          	bnez	s4,1668 <USBH_EnumHubDevice+0x11c>
    16d6:	0fe00913          	li	s2,254
    16da:	854a                	mv	a0,s2
    16dc:	0141                	addi	sp,sp,16
    16de:	aadfe06f          	j	18a <__riscv_restore_4>

000016e2 <HUB_Port_PreEnum1>:
    16e2:	a75fe2ef          	jal	t0,156 <__riscv_save_4>
    16e6:	0005c783          	lbu	a5,0(a1)
    16ea:	1141                	addi	sp,sp,-16
    16ec:	40a7d7b3          	sra	a5,a5,a0
    16f0:	8b85                	andi	a5,a5,1
    16f2:	c785                	beqz	a5,171a <HUB_Port_PreEnum1+0x38>
    16f4:	20001937          	lui	s2,0x20001
    16f8:	2c890793          	addi	a5,s2,712 # 200012c8 <RootHubDev>
    16fc:	85aa                	mv	a1,a0
    16fe:	84aa                	mv	s1,a0
    1700:	0047c503          	lbu	a0,4(a5)
    1704:	0070                	addi	a2,sp,12
    1706:	2c890913          	addi	s2,s2,712
    170a:	2da010ef          	jal	ra,29e4 <HUB_GetPortStatus>
    170e:	842a                	mv	s0,a0
    1710:	e931                	bnez	a0,1764 <HUB_Port_PreEnum1+0x82>
    1712:	00e14783          	lbu	a5,14(sp)
    1716:	8b85                	andi	a5,a5,1
    1718:	e781                	bnez	a5,1720 <HUB_Port_PreEnum1+0x3e>
    171a:	0fe00413          	li	s0,254
    171e:	a099                	j	1764 <HUB_Port_PreEnum1+0x82>
    1720:	00494503          	lbu	a0,4(s2)
    1724:	4641                	li	a2,16
    1726:	85a6                	mv	a1,s1
    1728:	2ee010ef          	jal	ra,2a16 <HUB_ClearPortFeature>
    172c:	842a                	mv	s0,a0
    172e:	e91d                	bnez	a0,1764 <HUB_Port_PreEnum1+0x82>
    1730:	49a9                	li	s3,10
    1732:	00494503          	lbu	a0,4(s2)
    1736:	0070                	addi	a2,sp,12
    1738:	85a6                	mv	a1,s1
    173a:	2aa010ef          	jal	ra,29e4 <HUB_GetPortStatus>
    173e:	e51d                	bnez	a0,176c <HUB_Port_PreEnum1+0x8a>
    1740:	00e14783          	lbu	a5,14(sp)
    1744:	0405                	addi	s0,s0,1
    1746:	0ff47413          	andi	s0,s0,255
    174a:	8b85                	andi	a5,a5,1
    174c:	c781                	beqz	a5,1754 <HUB_Port_PreEnum1+0x72>
    174e:	ff3412e3          	bne	s0,s3,1732 <HUB_Port_PreEnum1+0x50>
    1752:	b7e1                	j	171a <HUB_Port_PreEnum1+0x38>
    1754:	47a9                	li	a5,10
    1756:	fcf402e3          	beq	s0,a5,171a <HUB_Port_PreEnum1+0x38>
    175a:	00c14783          	lbu	a5,12(sp)
    175e:	4459                	li	s0,22
    1760:	8b85                	andi	a5,a5,1
    1762:	ffc5                	bnez	a5,171a <HUB_Port_PreEnum1+0x38>
    1764:	8522                	mv	a0,s0
    1766:	0141                	addi	sp,sp,16
    1768:	a23fe06f          	j	18a <__riscv_restore_4>
    176c:	842a                	mv	s0,a0
    176e:	bfdd                	j	1764 <HUB_Port_PreEnum1+0x82>

00001770 <HUB_Port_PreEnum2>:
    1770:	9e7fe2ef          	jal	t0,156 <__riscv_save_4>
    1774:	0005c783          	lbu	a5,0(a1)
    1778:	1141                	addi	sp,sp,-16
    177a:	0fe00413          	li	s0,254
    177e:	40a7d7b3          	sra	a5,a5,a0
    1782:	8b85                	andi	a5,a5,1
    1784:	cbc1                	beqz	a5,1814 <HUB_Port_PreEnum2+0xa4>
    1786:	20001937          	lui	s2,0x20001
    178a:	2c890793          	addi	a5,s2,712 # 200012c8 <RootHubDev>
    178e:	85aa                	mv	a1,a0
    1790:	84aa                	mv	s1,a0
    1792:	0047c503          	lbu	a0,4(a5)
    1796:	4611                	li	a2,4
    1798:	2c890913          	addi	s2,s2,712
    179c:	2a8010ef          	jal	ra,2a44 <HUB_SetPortFeature>
    17a0:	842a                	mv	s0,a0
    17a2:	e92d                	bnez	a0,1814 <HUB_Port_PreEnum2+0xa4>
    17a4:	4529                	li	a0,10
    17a6:	5ce030ef          	jal	ra,4d74 <Delay_Ms>
    17aa:	49ad                	li	s3,11
    17ac:	00494503          	lbu	a0,4(s2)
    17b0:	0070                	addi	a2,sp,12
    17b2:	85a6                	mv	a1,s1
    17b4:	230010ef          	jal	ra,29e4 <HUB_GetPortStatus>
    17b8:	ed29                	bnez	a0,1812 <HUB_Port_PreEnum2+0xa2>
    17ba:	00e14783          	lbu	a5,14(sp)
    17be:	0405                	addi	s0,s0,1
    17c0:	0ff47413          	andi	s0,s0,255
    17c4:	8bc1                	andi	a5,a5,16
    17c6:	e3a9                	bnez	a5,1808 <HUB_Port_PreEnum2+0x98>
    17c8:	ff3412e3          	bne	s0,s3,17ac <HUB_Port_PreEnum2+0x3c>
    17cc:	00494503          	lbu	a0,4(s2)
    17d0:	4651                	li	a2,20
    17d2:	85a6                	mv	a1,s1
    17d4:	242010ef          	jal	ra,2a16 <HUB_ClearPortFeature>
    17d8:	4401                	li	s0,0
    17da:	49ad                	li	s3,11
    17dc:	00494503          	lbu	a0,4(s2)
    17e0:	0070                	addi	a2,sp,12
    17e2:	85a6                	mv	a1,s1
    17e4:	200010ef          	jal	ra,29e4 <HUB_GetPortStatus>
    17e8:	e50d                	bnez	a0,1812 <HUB_Port_PreEnum2+0xa2>
    17ea:	00e14783          	lbu	a5,14(sp)
    17ee:	0405                	addi	s0,s0,1
    17f0:	0ff47413          	andi	s0,s0,255
    17f4:	8bc1                	andi	a5,a5,16
    17f6:	c39d                	beqz	a5,181c <HUB_Port_PreEnum2+0xac>
    17f8:	ff3412e3          	bne	s0,s3,17dc <HUB_Port_PreEnum2+0x6c>
    17fc:	00c14783          	lbu	a5,12(sp)
    1800:	8b85                	andi	a5,a5,1
    1802:	c791                	beqz	a5,180e <HUB_Port_PreEnum2+0x9e>
    1804:	4555                	li	a0,21
    1806:	a031                	j	1812 <HUB_Port_PreEnum2+0xa2>
    1808:	47a9                	li	a5,10
    180a:	fcf411e3          	bne	s0,a5,17cc <HUB_Port_PreEnum2+0x5c>
    180e:	0fe00513          	li	a0,254
    1812:	842a                	mv	s0,a0
    1814:	8522                	mv	a0,s0
    1816:	0141                	addi	sp,sp,16
    1818:	973fe06f          	j	18a <__riscv_restore_4>
    181c:	47a9                	li	a5,10
    181e:	fef408e3          	beq	s0,a5,180e <HUB_Port_PreEnum2+0x9e>
    1822:	bfe9                	j	17fc <HUB_Port_PreEnum2+0x8c>

00001824 <HUB_CheckPortSpeed>:
    1824:	94dfe2ef          	jal	t0,170 <__riscv_save_0>
    1828:	200017b7          	lui	a5,0x20001
    182c:	842e                	mv	s0,a1
    182e:	862e                	mv	a2,a1
    1830:	85aa                	mv	a1,a0
    1832:	2cc7c503          	lbu	a0,716(a5) # 200012cc <RootHubDev+0x4>
    1836:	1ae010ef          	jal	ra,29e4 <HUB_GetPortStatus>
    183a:	e919                	bnez	a0,1850 <HUB_CheckPortSpeed+0x2c>
    183c:	00144783          	lbu	a5,1(s0)
    1840:	0027f713          	andi	a4,a5,2
    1844:	e711                	bnez	a4,1850 <HUB_CheckPortSpeed+0x2c>
    1846:	0047f513          	andi	a0,a5,4
    184a:	00a03533          	snez	a0,a0
    184e:	0505                	addi	a0,a0,1
    1850:	945fe06f          	j	194 <__riscv_restore_0>

00001854 <USBH_EnumHubPortDevice>:
    1854:	8edfe2ef          	jal	t0,140 <__riscv_save_12>
    1858:	4799                	li	a5,6
    185a:	02f507b3          	mul	a5,a0,a5
    185e:	20001437          	lui	s0,0x20001
    1862:	2c840a93          	addi	s5,s0,712 # 200012c8 <RootHubDev>
    1866:	1101                	addi	sp,sp,-32
    1868:	84aa                	mv	s1,a0
    186a:	8a2e                	mv	s4,a1
    186c:	c432                	sw	a2,8(sp)
    186e:	4929                	li	s2,10
    1870:	2c840413          	addi	s0,s0,712
    1874:	07ad                	addi	a5,a5,11
    1876:	9abe                	add	s5,s5,a5
    1878:	8bc18993          	addi	s3,gp,-1860 # 20000294 <Device_Descriptor>
    187c:	20000bb7          	lui	s7,0x20000
    1880:	38818593          	addi	a1,gp,904 # 20000d60 <DevDesc_Buf>
    1884:	8556                	mv	a0,s5
    1886:	683000ef          	jal	ra,2708 <USBFSH_GetDeviceDescr>
    188a:	8d2a                	mv	s10,a0
    188c:	4549                	li	a0,18
    188e:	5e0030ef          	jal	ra,4e6e <malloc>
    1892:	00a9a023          	sw	a0,0(s3)
    1896:	c909                	beqz	a0,18a8 <USBH_EnumHubPortDevice+0x54>
    1898:	4649                	li	a2,18
    189a:	058b8593          	addi	a1,s7,88 # 20000058 <USBD_DeviceDescriptor>
    189e:	5f4030ef          	jal	ra,4e92 <memcpy>
    18a2:	47c9                	li	a5,18
    18a4:	00f99223          	sh	a5,4(s3)
    18a8:	000d0c63          	beqz	s10,18c0 <USBH_EnumHubPortDevice+0x6c>
    18ac:	197d                	addi	s2,s2,-1
    18ae:	0ff97913          	andi	s2,s2,255
    18b2:	fc0917e3          	bnez	s2,1880 <USBH_EnumHubPortDevice+0x2c>
    18b6:	04500513          	li	a0,69
    18ba:	6105                	addi	sp,sp,32
    18bc:	8c1fe06f          	j	17c <__riscv_restore_12>
    18c0:	4919                	li	s2,6
    18c2:	03248933          	mul	s2,s1,s2
    18c6:	49a9                	li	s3,10
    18c8:	9922                	add	s2,s2,s0
    18ca:	00c94583          	lbu	a1,12(s2)
    18ce:	00b94503          	lbu	a0,11(s2)
    18d2:	0589                	addi	a1,a1,2
    18d4:	0ff5f593          	andi	a1,a1,255
    18d8:	753000ef          	jal	ra,282a <USBFSH_SetUsbAddress>
    18dc:	e171                	bnez	a0,19a0 <USBH_EnumHubPortDevice+0x14c>
    18de:	00c94783          	lbu	a5,12(s2)
    18e2:	4515                	li	a0,5
    18e4:	0789                	addi	a5,a5,2
    18e6:	00fa0023          	sb	a5,0(s4)
    18ea:	48a030ef          	jal	ra,4d74 <Delay_Ms>
    18ee:	4719                	li	a4,6
    18f0:	02e48733          	mul	a4,s1,a4
    18f4:	4c29                	li	s8,10
    18f6:	39c18913          	addi	s2,gp,924 # 20000d74 <Hid_Descriptor>
    18fa:	8b418993          	addi	s3,gp,-1868 # 2000028c <Config_Descriptor_KB>
    18fe:	8ad2                	mv	s5,s4
    1900:	20000b37          	lui	s6,0x20000
    1904:	4d25                	li	s10,9
    1906:	00e407b3          	add	a5,s0,a4
    190a:	c63e                	sw	a5,12(sp)
    190c:	47b2                	lw	a5,12(sp)
    190e:	01e10693          	addi	a3,sp,30
    1912:	40000613          	li	a2,1024
    1916:	00b7c503          	lbu	a0,11(a5)
    191a:	f8818593          	addi	a1,gp,-120 # 20000960 <Com_Buf>
    191e:	637000ef          	jal	ra,2754 <USBFSH_GetConfigDescr>
    1922:	01e15c83          	lhu	s9,30(sp)
    1926:	8daa                	mv	s11,a0
    1928:	8566                	mv	a0,s9
    192a:	544030ef          	jal	ra,4e6e <malloc>
    192e:	00a92023          	sw	a0,0(s2)
    1932:	8baa                	mv	s7,a0
    1934:	8566                	mv	a0,s9
    1936:	538030ef          	jal	ra,4e6e <malloc>
    193a:	00a9a023          	sw	a0,0(s3)
    193e:	c105                	beqz	a0,195e <USBH_EnumHubPortDevice+0x10a>
    1940:	8666                	mv	a2,s9
    1942:	010b0593          	addi	a1,s6,16 # 20000010 <USBD_ConfigDescriptor_KB>
    1946:	54c030ef          	jal	ra,4e92 <memcpy>
    194a:	8666                	mv	a2,s9
    194c:	010b0593          	addi	a1,s6,16
    1950:	855e                	mv	a0,s7
    1952:	01999223          	sh	s9,4(s3)
    1956:	53c030ef          	jal	ra,4e92 <memcpy>
    195a:	01a91223          	sh	s10,4(s2)
    195e:	040d9963          	bnez	s11,19b0 <USBH_EnumHubPortDevice+0x15c>
    1962:	f8818793          	addi	a5,gp,-120 # 20000960 <Com_Buf>
    1966:	4622                	lw	a2,8(sp)
    1968:	0057c983          	lbu	s3,5(a5)
    196c:	38818513          	addi	a0,gp,904 # 20000d60 <DevDesc_Buf>
    1970:	f8818593          	addi	a1,gp,-120 # 20000960 <Com_Buf>
    1974:	cd4ff0ef          	jal	ra,e48 <USBH_AnalyseType>
    1978:	4799                	li	a5,6
    197a:	02f484b3          	mul	s1,s1,a5
    197e:	4929                	li	s2,10
    1980:	9426                	add	s0,s0,s1
    1982:	00b44503          	lbu	a0,11(s0)
    1986:	85ce                	mv	a1,s3
    1988:	6df000ef          	jal	ra,2866 <USBFSH_SetUsbConfig>
    198c:	f20507e3          	beqz	a0,18ba <USBH_EnumHubPortDevice+0x66>
    1990:	197d                	addi	s2,s2,-1
    1992:	0ff97913          	andi	s2,s2,255
    1996:	fe0916e3          	bnez	s2,1982 <USBH_EnumHubPortDevice+0x12e>
    199a:	04900513          	li	a0,73
    199e:	bf31                	j	18ba <USBH_EnumHubPortDevice+0x66>
    19a0:	19fd                	addi	s3,s3,-1
    19a2:	0ff9f993          	andi	s3,s3,255
    19a6:	f20992e3          	bnez	s3,18ca <USBH_EnumHubPortDevice+0x76>
    19aa:	04600513          	li	a0,70
    19ae:	b731                	j	18ba <USBH_EnumHubPortDevice+0x66>
    19b0:	fffc0793          	addi	a5,s8,-1
    19b4:	0ff7fc13          	andi	s8,a5,255
    19b8:	f40c1ae3          	bnez	s8,190c <USBH_EnumHubPortDevice+0xb8>
    19bc:	bded                	j	18b6 <USBH_EnumHubPortDevice+0x62>

000019be <KB_SetReport>:
    19be:	fb2fe2ef          	jal	t0,170 <__riscv_save_0>
    19c2:	86aa                	mv	a3,a0
    19c4:	10a00813          	li	a6,266
    19c8:	852e                	mv	a0,a1
    19ca:	85b2                	mv	a1,a2
    19cc:	04200613          	li	a2,66
    19d0:	03068833          	mul	a6,a3,a6
    19d4:	3ac18793          	addi	a5,gp,940 # 20000d84 <HostCtl>
    19d8:	1141                	addi	sp,sp,-16
    19da:	3ac18713          	addi	a4,gp,940 # 20000d84 <HostCtl>
    19de:	02c58633          	mul	a2,a1,a2
    19e2:	9642                	add	a2,a2,a6
    19e4:	97b2                	add	a5,a5,a2
    19e6:	03c7c803          	lbu	a6,60(a5)
    19ea:	0417c603          	lbu	a2,65(a5)
    19ee:	04080363          	beqz	a6,1a34 <KB_SetReport+0x76>
    19f2:	03d7c783          	lbu	a5,61(a5)
    19f6:	00c106a3          	sb	a2,13(sp)
    19fa:	00f10623          	sb	a5,12(sp)
    19fe:	4789                	li	a5,2
    1a00:	10a00613          	li	a2,266
    1a04:	00f11723          	sh	a5,14(sp)
    1a08:	04200793          	li	a5,66
    1a0c:	02c686b3          	mul	a3,a3,a2
    1a10:	4885                	li	a7,1
    1a12:	02f587b3          	mul	a5,a1,a5
    1a16:	00d78833          	add	a6,a5,a3
    1a1a:	983a                	add	a6,a6,a4
    1a1c:	04084603          	lbu	a2,64(a6)
    1a20:	01161e63          	bne	a2,a7,1a3c <KB_SetReport+0x7e>
    1a24:	00e10693          	addi	a3,sp,14
    1a28:	0070                	addi	a2,sp,12
    1a2a:	75b000ef          	jal	ra,2984 <HID_SetReport>
    1a2e:	0141                	addi	sp,sp,16
    1a30:	f64fe06f          	j	194 <__riscv_restore_0>
    1a34:	00c10623          	sb	a2,12(sp)
    1a38:	4785                	li	a5,1
    1a3a:	b7d9                	j	1a00 <KB_SetReport+0x42>
    1a3c:	0ff00593          	li	a1,255
    1a40:	4501                	li	a0,0
    1a42:	feb616e3          	bne	a2,a1,1a2e <KB_SetReport+0x70>
    1a46:	03878793          	addi	a5,a5,56
    1a4a:	97b6                	add	a5,a5,a3
    1a4c:	02784503          	lbu	a0,39(a6)
    1a50:	00e15683          	lhu	a3,14(sp)
    1a54:	0070                	addi	a2,sp,12
    1a56:	00f705b3          	add	a1,a4,a5
    1a5a:	6af000ef          	jal	ra,2908 <USBFSH_SendEndpData>
    1a5e:	bfc1                	j	1a2e <KB_SetReport+0x70>

00001a60 <USBH_EnumHidDevice>:
    1a60:	ee8fe2ef          	jal	t0,148 <__riscv_save_10>
    1a64:	89aa                	mv	s3,a0
    1a66:	84ae                	mv	s1,a1
    1a68:	d98ff0ef          	jal	ra,1000 <KM_AnalyzeConfigDesc>
    1a6c:	8a2a                	mv	s4,a0
    1a6e:	12051f63          	bnez	a0,1bac <USBH_EnumHidDevice+0x14c>
    1a72:	f8818793          	addi	a5,gp,-120 # 20000960 <Com_Buf>
    1a76:	0067c583          	lbu	a1,6(a5)
    1a7a:	f8818a93          	addi	s5,gp,-120 # 20000960 <Com_Buf>
    1a7e:	c98d                	beqz	a1,1ab0 <USBH_EnumHidDevice+0x50>
    1a80:	f8818613          	addi	a2,gp,-120 # 20000960 <Com_Buf>
    1a84:	8526                	mv	a0,s1
    1a86:	545000ef          	jal	ra,27ca <USBFSH_GetStrDescr>
    1a8a:	000acb03          	lbu	s6,0(s5)
    1a8e:	20001937          	lui	s2,0x20001
    1a92:	2e890913          	addi	s2,s2,744 # 200012e8 <String_Descriptor>
    1a96:	855a                	mv	a0,s6
    1a98:	3d6030ef          	jal	ra,4e6e <malloc>
    1a9c:	00a92023          	sw	a0,0(s2)
    1aa0:	c901                	beqz	a0,1ab0 <USBH_EnumHidDevice+0x50>
    1aa2:	4611                	li	a2,4
    1aa4:	80c18593          	addi	a1,gp,-2036 # 200001e4 <USBD_StringLangID>
    1aa8:	3ea030ef          	jal	ra,4e92 <memcpy>
    1aac:	01691223          	sh	s6,4(s2)
    1ab0:	85a6                	mv	a1,s1
    1ab2:	854e                	mv	a0,s3
    1ab4:	90fff0ef          	jal	ra,13c2 <KM_DealHidReportDesc>
    1ab8:	38818793          	addi	a5,gp,904 # 20000d60 <DevDesc_Buf>
    1abc:	00e7c583          	lbu	a1,14(a5)
    1ac0:	38818913          	addi	s2,gp,904 # 20000d60 <DevDesc_Buf>
    1ac4:	c99d                	beqz	a1,1afa <USBH_EnumHidDevice+0x9a>
    1ac6:	f8818613          	addi	a2,gp,-120 # 20000960 <Com_Buf>
    1aca:	8526                	mv	a0,s1
    1acc:	4ff000ef          	jal	ra,27ca <USBFSH_GetStrDescr>
    1ad0:	000acb83          	lbu	s7,0(s5)
    1ad4:	20001b37          	lui	s6,0x20001
    1ad8:	2e8b0b13          	addi	s6,s6,744 # 200012e8 <String_Descriptor>
    1adc:	855e                	mv	a0,s7
    1ade:	390030ef          	jal	ra,4e6e <malloc>
    1ae2:	00ab2423          	sw	a0,8(s6)
    1ae6:	c911                	beqz	a0,1afa <USBH_EnumHidDevice+0x9a>
    1ae8:	200005b7          	lui	a1,0x20000
    1aec:	4639                	li	a2,14
    1aee:	0d858593          	addi	a1,a1,216 # 200000d8 <USBD_StringVendor>
    1af2:	3a0030ef          	jal	ra,4e92 <memcpy>
    1af6:	017b1623          	sh	s7,12(s6)
    1afa:	00f94583          	lbu	a1,15(s2)
    1afe:	c99d                	beqz	a1,1b34 <USBH_EnumHidDevice+0xd4>
    1b00:	f8818613          	addi	a2,gp,-120 # 20000960 <Com_Buf>
    1b04:	8526                	mv	a0,s1
    1b06:	4c5000ef          	jal	ra,27ca <USBFSH_GetStrDescr>
    1b0a:	000acb83          	lbu	s7,0(s5)
    1b0e:	20001b37          	lui	s6,0x20001
    1b12:	2e8b0b13          	addi	s6,s6,744 # 200012e8 <String_Descriptor>
    1b16:	855e                	mv	a0,s7
    1b18:	356030ef          	jal	ra,4e6e <malloc>
    1b1c:	00ab2823          	sw	a0,16(s6)
    1b20:	c911                	beqz	a0,1b34 <USBH_EnumHidDevice+0xd4>
    1b22:	200005b7          	lui	a1,0x20000
    1b26:	865e                	mv	a2,s7
    1b28:	0ac58593          	addi	a1,a1,172 # 200000ac <USBD_StringProduct>
    1b2c:	366030ef          	jal	ra,4e92 <memcpy>
    1b30:	017b1a23          	sh	s7,20(s6)
    1b34:	01094583          	lbu	a1,16(s2)
    1b38:	c995                	beqz	a1,1b6c <USBH_EnumHidDevice+0x10c>
    1b3a:	f8818613          	addi	a2,gp,-120 # 20000960 <Com_Buf>
    1b3e:	8526                	mv	a0,s1
    1b40:	48b000ef          	jal	ra,27ca <USBFSH_GetStrDescr>
    1b44:	000ac903          	lbu	s2,0(s5)
    1b48:	20001437          	lui	s0,0x20001
    1b4c:	2e840413          	addi	s0,s0,744 # 200012e8 <String_Descriptor>
    1b50:	854a                	mv	a0,s2
    1b52:	31c030ef          	jal	ra,4e6e <malloc>
    1b56:	cc08                	sw	a0,24(s0)
    1b58:	c911                	beqz	a0,1b6c <USBH_EnumHidDevice+0x10c>
    1b5a:	200005b7          	lui	a1,0x20000
    1b5e:	864a                	mv	a2,s2
    1b60:	0c058593          	addi	a1,a1,192 # 200000c0 <USBD_StringSerial>
    1b64:	32e030ef          	jal	ra,4e92 <memcpy>
    1b68:	01241e23          	sh	s2,28(s0)
    1b6c:	10a00a93          	li	s5,266
    1b70:	03598ab3          	mul	s5,s3,s5
    1b74:	3ac18913          	addi	s2,gp,940 # 20000d84 <HostCtl>
    1b78:	4401                	li	s0,0
    1b7a:	04200b93          	li	s7,66
    1b7e:	4c05                	li	s8,1
    1b80:	01590b33          	add	s6,s2,s5
    1b84:	000b4783          	lbu	a5,0(s6)
    1b88:	02f46563          	bltu	s0,a5,1bb2 <USBH_EnumHidDevice+0x152>
    1b8c:	8041c703          	lbu	a4,-2044(gp) # 200001dc <new_descripter>
    1b90:	4785                	li	a5,1
    1b92:	00e7ed63          	bltu	a5,a4,1bac <USBH_EnumHidDevice+0x14c>
    1b96:	67e020ef          	jal	ra,4214 <Set_USBConfig>
    1b9a:	761010ef          	jal	ra,3afa <USB_Init>
    1b9e:	726020ef          	jal	ra,42c4 <USB_Interrupts_Config>
    1ba2:	4795                	li	a5,5
    1ba4:	91c1a703          	lw	a4,-1764(gp) # 200002f4 <bDeviceState>
    1ba8:	fef71ee3          	bne	a4,a5,1ba4 <USBH_EnumHidDevice+0x144>
    1bac:	8552                	mv	a0,s4
    1bae:	dd2fe06f          	j	180 <__riscv_restore_10>
    1bb2:	037407b3          	mul	a5,s0,s7
    1bb6:	97d6                	add	a5,a5,s5
    1bb8:	97ca                	add	a5,a5,s2
    1bba:	0027c703          	lbu	a4,2(a5)
    1bbe:	01871863          	bne	a4,s8,1bce <USBH_EnumHidDevice+0x16e>
    1bc2:	040780a3          	sb	zero,65(a5)
    1bc6:	8622                	mv	a2,s0
    1bc8:	85a6                	mv	a1,s1
    1bca:	854e                	mv	a0,s3
    1bcc:	3bcd                	jal	19be <KB_SetReport>
    1bce:	0405                	addi	s0,s0,1
    1bd0:	0ff47413          	andi	s0,s0,255
    1bd4:	bf45                	j	1b84 <USBH_EnumHidDevice+0x124>

00001bd6 <USBH_MainDeal>:
    1bd6:	d6afe2ef          	jal	t0,140 <__riscv_save_12>
    1bda:	200019b7          	lui	s3,0x20001
    1bde:	2c89c503          	lbu	a0,712(s3) # 200012c8 <RootHubDev>
    1be2:	1101                	addi	sp,sp,-32
    1be4:	2c898413          	addi	s0,s3,712
    1be8:	724000ef          	jal	ra,230c <USBFSH_CheckRootHubPortStatus>
    1bec:	4705                	li	a4,1
    1bee:	87aa                	mv	a5,a0
    1bf0:	0ae51c63          	bne	a0,a4,1ca8 <USBH_MainDeal+0xd2>
    1bf4:	00a40023          	sb	a0,0(s0)
    1bf8:	000402a3          	sb	zero,5(s0)
    1bfc:	a94ff0ef          	jal	ra,e90 <USBH_EnumRootDevice>
    1c00:	87aa                	mv	a5,a0
    1c02:	ed51                	bnez	a0,1c9e <USBH_MainDeal+0xc8>
    1c04:	00144703          	lbu	a4,1(s0)
    1c08:	468d                	li	a3,3
    1c0a:	00d71e63          	bne	a4,a3,1c26 <USBH_MainDeal+0x50>
    1c0e:	c02a                	sw	a0,0(sp)
    1c10:	00444583          	lbu	a1,4(s0)
    1c14:	00544503          	lbu	a0,5(s0)
    1c18:	35a1                	jal	1a60 <USBH_EnumHidDevice>
    1c1a:	4782                	lw	a5,0(sp)
    1c1c:	ed01                	bnez	a0,1c34 <USBH_MainDeal+0x5e>
    1c1e:	470d                	li	a4,3
    1c20:	00e40023          	sb	a4,0(s0)
    1c24:	a005                	j	1c44 <USBH_MainDeal+0x6e>
    1c26:	46a5                	li	a3,9
    1c28:	fed71be3          	bne	a4,a3,1c1e <USBH_MainDeal+0x48>
    1c2c:	c02a                	sw	a0,0(sp)
    1c2e:	91fff0ef          	jal	ra,154c <USBH_EnumHubDevice>
    1c32:	b7e5                	j	1c1a <USBH_MainDeal+0x44>
    1c34:	4759                	li	a4,22
    1c36:	47d9                	li	a5,22
    1c38:	00e50663          	beq	a0,a4,1c44 <USBH_MainDeal+0x6e>
    1c3c:	4789                	li	a5,2
    1c3e:	00f40023          	sb	a5,0(s0)
    1c42:	87aa                	mv	a5,a0
    1c44:	00044683          	lbu	a3,0(s0)
    1c48:	4709                	li	a4,2
    1c4a:	28d77863          	bgeu	a4,a3,1eda <USBH_MainDeal+0x304>
    1c4e:	00144703          	lbu	a4,1(s0)
    1c52:	468d                	li	a3,3
    1c54:	00544c83          	lbu	s9,5(s0)
    1c58:	24d71863          	bne	a4,a3,1ea8 <USBH_MainDeal+0x2d2>
    1c5c:	10a00a13          	li	s4,266
    1c60:	034c8a33          	mul	s4,s9,s4
    1c64:	3ac18713          	addi	a4,gp,940 # 20000d84 <HostCtl>
    1c68:	4901                	li	s2,0
    1c6a:	3ac18a93          	addi	s5,gp,940 # 20000d84 <HostCtl>
    1c6e:	8d018b13          	addi	s6,gp,-1840 # 200002a8 <KB_Data_Pack>
    1c72:	9752                	add	a4,a4,s4
    1c74:	c03a                	sw	a4,0(sp)
    1c76:	c252                	sw	s4,4(sp)
    1c78:	8c3a                	mv	s8,a4
    1c7a:	000c4703          	lbu	a4,0(s8)
    1c7e:	24e97e63          	bgeu	s2,a4,1eda <USBH_MainDeal+0x304>
    1c82:	04200713          	li	a4,66
    1c86:	02e90733          	mul	a4,s2,a4
    1c8a:	4692                	lw	a3,4(sp)
    1c8c:	4481                	li	s1,0
    1c8e:	00d70bb3          	add	s7,a4,a3
    1c92:	01aa0693          	addi	a3,s4,26
    1c96:	9736                	add	a4,a4,a3
    1c98:	9bd6                	add	s7,s7,s5
    1c9a:	c63a                	sw	a4,12(sp)
    1c9c:	a0fd                	j	1d8a <USBH_MainDeal+0x1b4>
    1c9e:	4759                	li	a4,22
    1ca0:	fae502e3          	beq	a0,a4,1c44 <USBH_MainDeal+0x6e>
    1ca4:	4709                	li	a4,2
    1ca6:	bfad                	j	1c20 <USBH_MainDeal+0x4a>
    1ca8:	fd51                	bnez	a0,1c44 <USBH_MainDeal+0x6e>
    1caa:	c02a                	sw	a0,0(sp)
    1cac:	00544483          	lbu	s1,5(s0)
    1cb0:	467d                	li	a2,31
    1cb2:	4581                	li	a1,0
    1cb4:	2c898513          	addi	a0,s3,712
    1cb8:	ce8fe0ef          	jal	ra,1a0 <memset>
    1cbc:	10a00513          	li	a0,266
    1cc0:	02a484b3          	mul	s1,s1,a0
    1cc4:	3ac18513          	addi	a0,gp,940 # 20000d84 <HostCtl>
    1cc8:	10a00613          	li	a2,266
    1ccc:	4581                	li	a1,0
    1cce:	9526                	add	a0,a0,s1
    1cd0:	cd0fe0ef          	jal	ra,1a0 <memset>
    1cd4:	4782                	lw	a5,0(sp)
    1cd6:	b7bd                	j	1c44 <USBH_MainDeal+0x6e>
    1cd8:	009b8db3          	add	s11,s7,s1
    1cdc:	022dc683          	lbu	a3,34(s11)
    1ce0:	01edc603          	lbu	a2,30(s11)
    1ce4:	0ac6e063          	bltu	a3,a2,1d84 <USBH_MainDeal+0x1ae>
    1ce8:	02c6f6b3          	remu	a3,a3,a2
    1cec:	47b2                	lw	a5,12(sp)
    1cee:	009dc503          	lbu	a0,9(s11)
    1cf2:	009785b3          	add	a1,a5,s1
    1cf6:	f8818613          	addi	a2,gp,-120 # 20000960 <Com_Buf>
    1cfa:	95d6                	add	a1,a1,s5
    1cfc:	02dd8123          	sb	a3,34(s11)
    1d00:	01e10693          	addi	a3,sp,30
    1d04:	3b3000ef          	jal	ra,28b6 <USBFSH_GetEndpData>
    1d08:	87aa                	mv	a5,a0
    1d0a:	e169                	bnez	a0,1dcc <USBH_MainDeal+0x1f6>
    1d0c:	01e15e83          	lhu	t4,30(sp)
    1d10:	8d81c883          	lbu	a7,-1832(gp) # 200002b0 <KB_Data_Pack_Full>
    1d14:	8cc1c303          	lbu	t1,-1844(gp) # 200002a4 <KB_Data_Buffer_Full>
    1d18:	8cc18593          	addi	a1,gp,-1844 # 200002a4 <KB_Data_Buffer_Full>
    1d1c:	8d91cf03          	lbu	t5,-1831(gp) # 200002b1 <KB_Data_State>
    1d20:	4501                	li	a0,0
    1d22:	4701                	li	a4,0
    1d24:	4e01                	li	t3,0
    1d26:	8d818813          	addi	a6,gp,-1832 # 200002b0 <KB_Data_Pack_Full>
    1d2a:	8c418693          	addi	a3,gp,-1852 # 2000029c <KB_Data_Buffer>
    1d2e:	01071613          	slli	a2,a4,0x10
    1d32:	8241                	srli	a2,a2,0x10
    1d34:	07d66663          	bltu	a2,t4,1da0 <USBH_MainDeal+0x1ca>
    1d38:	000e0463          	beqz	t3,1d40 <USBH_MainDeal+0x16a>
    1d3c:	00658023          	sb	t1,0(a1)
    1d40:	c119                	beqz	a0,1d46 <USBH_MainDeal+0x170>
    1d42:	01180023          	sb	a7,0(a6)
    1d46:	8d81c703          	lbu	a4,-1832(gp) # 200002b0 <KB_Data_Pack_Full>
    1d4a:	8cc1c603          	lbu	a2,-1844(gp) # 200002a4 <KB_Data_Buffer_Full>
    1d4e:	8d818693          	addi	a3,gp,-1832 # 200002b0 <KB_Data_Pack_Full>
    1d52:	c436                	sw	a3,8(sp)
    1d54:	9732                	add	a4,a4,a2
    1d56:	8cc18d93          	addi	s11,gp,-1844 # 200002a4 <KB_Data_Buffer_Full>
    1d5a:	c70d                	beqz	a4,1d84 <USBH_MainDeal+0x1ae>
    1d5c:	8041c683          	lbu	a3,-2044(gp) # 200001dc <new_descripter>
    1d60:	8d91c603          	lbu	a2,-1831(gp) # 200002b1 <KB_Data_State>
    1d64:	8d918d13          	addi	s10,gp,-1831 # 200002b1 <KB_Data_State>
    1d68:	10060063          	beqz	a2,1e68 <USBH_MainDeal+0x292>
    1d6c:	0e069963          	bnez	a3,1e5e <USBH_MainDeal+0x288>
    1d70:	4621                	li	a2,8
    1d72:	8c418593          	addi	a1,gp,-1852 # 2000029c <KB_Data_Buffer>
    1d76:	4505                	li	a0,1
    1d78:	656020ef          	jal	ra,43ce <USBD_ENDPx_DataUp>
    1d7c:	87aa                	mv	a5,a0
    1d7e:	10051763          	bnez	a0,1e8c <USBH_MainDeal+0x2b6>
    1d82:	4781                	li	a5,0
    1d84:	0485                	addi	s1,s1,1
    1d86:	0ff4f493          	andi	s1,s1,255
    1d8a:	008bc703          	lbu	a4,8(s7)
    1d8e:	f4e4e5e3          	bltu	s1,a4,1cd8 <USBH_MainDeal+0x102>
    1d92:	4759                	li	a4,22
    1d94:	14e78363          	beq	a5,a4,1eda <USBH_MainDeal+0x304>
    1d98:	0905                	addi	s2,s2,1
    1d9a:	0ff97913          	andi	s2,s2,255
    1d9e:	bdf1                	j	1c7a <USBH_MainDeal+0xa4>
    1da0:	f8818613          	addi	a2,gp,-120 # 20000960 <Com_Buf>
    1da4:	963a                	add	a2,a2,a4
    1da6:	00064603          	lbu	a2,0(a2)
    1daa:	000f0a63          	beqz	t5,1dbe <USBH_MainDeal+0x1e8>
    1dae:	00e68333          	add	t1,a3,a4
    1db2:	00c30023          	sb	a2,0(t1)
    1db6:	4e05                	li	t3,1
    1db8:	4305                	li	t1,1
    1dba:	0705                	addi	a4,a4,1
    1dbc:	bf8d                	j	1d2e <USBH_MainDeal+0x158>
    1dbe:	00eb0533          	add	a0,s6,a4
    1dc2:	00c50023          	sb	a2,0(a0)
    1dc6:	4885                	li	a7,1
    1dc8:	4505                	li	a0,1
    1dca:	bfc5                	j	1dba <USBH_MainDeal+0x1e4>
    1dcc:	4d59                	li	s10,22
    1dce:	11a50663          	beq	a0,s10,1eda <USBH_MainDeal+0x304>
    1dd2:	02e00693          	li	a3,46
    1dd6:	f6d518e3          	bne	a0,a3,1d46 <USBH_MainDeal+0x170>
    1dda:	009dc583          	lbu	a1,9(s11)
    1dde:	c42a                	sw	a0,8(sp)
    1de0:	00444503          	lbu	a0,4(s0)
    1de4:	0805e593          	ori	a1,a1,128
    1de8:	2a7000ef          	jal	ra,288e <USBFSH_ClearEndpStall>
    1dec:	001c4683          	lbu	a3,1(s8)
    1df0:	000d8d23          	sb	zero,26(s11)
    1df4:	4625                	li	a2,9
    1df6:	0685                	addi	a3,a3,1
    1df8:	0ff6f693          	andi	a3,a3,255
    1dfc:	00dc00a3          	sb	a3,1(s8)
    1e00:	47a2                	lw	a5,8(sp)
    1e02:	f4d672e3          	bgeu	a2,a3,1d46 <USBH_MainDeal+0x170>
    1e06:	467d                	li	a2,31
    1e08:	4581                	li	a1,0
    1e0a:	2c898513          	addi	a0,s3,712
    1e0e:	b92fe0ef          	jal	ra,1a0 <memset>
    1e12:	87eff0ef          	jal	ra,e90 <USBH_EnumRootDevice>
    1e16:	87aa                	mv	a5,a0
    1e18:	ed0d                	bnez	a0,1e52 <USBH_MainDeal+0x27c>
    1e1a:	009dc583          	lbu	a1,9(s11)
    1e1e:	00444503          	lbu	a0,4(s0)
    1e22:	0805e593          	ori	a1,a1,128
    1e26:	269000ef          	jal	ra,288e <USBFSH_ClearEndpStall>
    1e2a:	4502                	lw	a0,0(sp)
    1e2c:	4785                	li	a5,1
    1e2e:	10a00613          	li	a2,266
    1e32:	4581                	li	a1,0
    1e34:	000c00a3          	sb	zero,1(s8)
    1e38:	00f40023          	sb	a5,0(s0)
    1e3c:	000402a3          	sb	zero,5(s0)
    1e40:	b60fe0ef          	jal	ra,1a0 <memset>
    1e44:	00444583          	lbu	a1,4(s0)
    1e48:	8566                	mv	a0,s9
    1e4a:	3919                	jal	1a60 <USBH_EnumHidDevice>
    1e4c:	87aa                	mv	a5,a0
    1e4e:	470d                	li	a4,3
    1e50:	c501                	beqz	a0,1e58 <USBH_MainDeal+0x282>
    1e52:	efa78ae3          	beq	a5,s10,1d46 <USBH_MainDeal+0x170>
    1e56:	4709                	li	a4,2
    1e58:	00e40023          	sb	a4,0(s0)
    1e5c:	b5ed                	j	1d46 <USBH_MainDeal+0x170>
    1e5e:	4605                	li	a2,1
    1e60:	3cc69963          	bne	a3,a2,2232 <USBH_MainDeal+0x65c>
    1e64:	4611                	li	a2,4
    1e66:	b731                	j	1d72 <USBH_MainDeal+0x19c>
    1e68:	f00684e3          	beqz	a3,1d70 <USBH_MainDeal+0x19a>
    1e6c:	4605                	li	a2,1
    1e6e:	fec68be3          	beq	a3,a2,1e64 <USBH_MainDeal+0x28e>
    1e72:	f00788e3          	beqz	a5,1d82 <USBH_MainDeal+0x1ac>
    1e76:	4722                	lw	a4,8(sp)
    1e78:	4685                	li	a3,1
    1e7a:	000b2023          	sw	zero,0(s6)
    1e7e:	000b2223          	sw	zero,4(s6)
    1e82:	00dd0023          	sb	a3,0(s10)
    1e86:	00070023          	sb	zero,0(a4)
    1e8a:	bded                	j	1d84 <USBH_MainDeal+0x1ae>
    1e8c:	000d4683          	lbu	a3,0(s10)
    1e90:	d2fd                	beqz	a3,1e76 <USBH_MainDeal+0x2a0>
    1e92:	8c418693          	addi	a3,gp,-1852 # 2000029c <KB_Data_Buffer>
    1e96:	0006a023          	sw	zero,0(a3)
    1e9a:	0006a223          	sw	zero,4(a3)
    1e9e:	000d0023          	sb	zero,0(s10)
    1ea2:	000d8023          	sb	zero,0(s11)
    1ea6:	bdf9                	j	1d84 <USBH_MainDeal+0x1ae>
    1ea8:	46a5                	li	a3,9
    1eaa:	02d71863          	bne	a4,a3,1eda <USBH_MainDeal+0x304>
    1eae:	10a00593          	li	a1,266
    1eb2:	02bc8cb3          	mul	s9,s9,a1
    1eb6:	3ac18993          	addi	s3,gp,940 # 20000d84 <HostCtl>
    1eba:	3ac18913          	addi	s2,gp,940 # 20000d84 <HostCtl>
    1ebe:	99e6                	add	s3,s3,s9
    1ec0:	0229c703          	lbu	a4,34(s3)
    1ec4:	01e9c683          	lbu	a3,30(s3)
    1ec8:	00d77c63          	bgeu	a4,a3,1ee0 <USBH_MainDeal+0x30a>
    1ecc:	4981                	li	s3,0
    1ece:	8d018c13          	addi	s8,gp,-1840 # 200002a8 <KB_Data_Pack>
    1ed2:	00644703          	lbu	a4,6(s0)
    1ed6:	18e9e163          	bltu	s3,a4,2058 <USBH_MainDeal+0x482>
    1eda:	6105                	addi	sp,sp,32
    1edc:	aa0fe06f          	j	17c <__riscv_restore_12>
    1ee0:	02d77733          	remu	a4,a4,a3
    1ee4:	00244503          	lbu	a0,2(s0)
    1ee8:	0ce9                	addi	s9,s9,26
    1eea:	f8818a13          	addi	s4,gp,-120 # 20000960 <Com_Buf>
    1eee:	02e98123          	sb	a4,34(s3)
    1ef2:	218d                	jal	2354 <USBFSH_SetSelfAddr>
    1ef4:	00344503          	lbu	a0,3(s0)
    1ef8:	2995                	jal	236c <USBFSH_SetSelfSpeed>
    1efa:	0099c503          	lbu	a0,9(s3)
    1efe:	01e10693          	addi	a3,sp,30
    1f02:	f8818613          	addi	a2,gp,-120 # 20000960 <Com_Buf>
    1f06:	019905b3          	add	a1,s2,s9
    1f0a:	1ad000ef          	jal	ra,28b6 <USBFSH_GetEndpData>
    1f0e:	87aa                	mv	a5,a0
    1f10:	fd55                	bnez	a0,1ecc <USBH_MainDeal+0x2f6>
    1f12:	000a4703          	lbu	a4,0(s4)
    1f16:	4c01                	li	s8,0
    1f18:	4cd5                	li	s9,21
    1f1a:	00e10ea3          	sb	a4,29(sp)
    1f1e:	4999                	li	s3,6
    1f20:	4d09                	li	s10,2
    1f22:	4a8d                	li	s5,3
    1f24:	50000bb7          	lui	s7,0x50000
    1f28:	4b05                	li	s6,1
    1f2a:	00644683          	lbu	a3,6(s0)
    1f2e:	f8dc7fe3          	bgeu	s8,a3,1ecc <USBH_MainDeal+0x2f6>
    1f32:	001c0d93          	addi	s11,s8,1
    1f36:	0ffdfa13          	andi	s4,s11,255
    1f3a:	01d10593          	addi	a1,sp,29
    1f3e:	8552                	mv	a0,s4
    1f40:	fa2ff0ef          	jal	ra,16e2 <HUB_Port_PreEnum1>
    1f44:	4759                	li	a4,22
    1f46:	04e51763          	bne	a0,a4,1f94 <USBH_MainDeal+0x3be>
    1f4a:	033c0c33          	mul	s8,s8,s3
    1f4e:	c02a                	sw	a0,0(sp)
    1f50:	01d14683          	lbu	a3,29(sp)
    1f54:	01bb1db3          	sll	s11,s6,s11
    1f58:	fffdcd93          	not	s11,s11
    1f5c:	00ddfdb3          	and	s11,s11,a3
    1f60:	10a00613          	li	a2,266
    1f64:	4581                	li	a1,0
    1f66:	01b10ea3          	sb	s11,29(sp)
    1f6a:	01840733          	add	a4,s0,s8
    1f6e:	00c74503          	lbu	a0,12(a4)
    1f72:	10a00713          	li	a4,266
    1f76:	02e50533          	mul	a0,a0,a4
    1f7a:	954a                	add	a0,a0,s2
    1f7c:	a24fe0ef          	jal	ra,1a0 <memset>
    1f80:	007c0513          	addi	a0,s8,7
    1f84:	4619                	li	a2,6
    1f86:	4581                	li	a1,0
    1f88:	9522                	add	a0,a0,s0
    1f8a:	a16fe0ef          	jal	ra,1a0 <memset>
    1f8e:	4782                	lw	a5,0(sp)
    1f90:	8c52                	mv	s8,s4
    1f92:	bf61                	j	1f2a <USBH_MainDeal+0x354>
    1f94:	06400513          	li	a0,100
    1f98:	5dd020ef          	jal	ra,4d74 <Delay_Ms>
    1f9c:	01d10593          	addi	a1,sp,29
    1fa0:	8552                	mv	a0,s4
    1fa2:	fceff0ef          	jal	ra,1770 <HUB_Port_PreEnum2>
    1fa6:	87aa                	mv	a5,a0
    1fa8:	09951363          	bne	a0,s9,202e <USBH_MainDeal+0x458>
    1fac:	033c07b3          	mul	a5,s8,s3
    1fb0:	4685                	li	a3,1
    1fb2:	97a2                	add	a5,a5,s0
    1fb4:	00d783a3          	sb	a3,7(a5)
    1fb8:	46a1                	li	a3,8
    1fba:	00d785a3          	sb	a3,11(a5)
    1fbe:	01478623          	sb	s4,12(a5)
    1fc2:	033c0db3          	mul	s11,s8,s3
    1fc6:	f8818593          	addi	a1,gp,-120 # 20000960 <Com_Buf>
    1fca:	8552                	mv	a0,s4
    1fcc:	859ff0ef          	jal	ra,1824 <HUB_CheckPortSpeed>
    1fd0:	9da2                	add	s11,s11,s0
    1fd2:	00ad8523          	sb	a0,10(s11)
    1fd6:	009dc503          	lbu	a0,9(s11)
    1fda:	2ead                	jal	2354 <USBFSH_SetSelfAddr>
    1fdc:	00adc503          	lbu	a0,10(s11)
    1fe0:	2671                	jal	236c <USBFSH_SetSelfSpeed>
    1fe2:	00344783          	lbu	a5,3(s0)
    1fe6:	c799                	beqz	a5,1ff4 <USBH_MainDeal+0x41e>
    1fe8:	001bc783          	lbu	a5,1(s7) # 50000001 <_eusrstack+0x2fffb001>
    1fec:	0fb7f793          	andi	a5,a5,251
    1ff0:	00fb80a3          	sb	a5,1(s7)
    1ff4:	033c0db3          	mul	s11,s8,s3
    1ff8:	8562                	mv	a0,s8
    1ffa:	008d8613          	addi	a2,s11,8
    1ffe:	009d8593          	addi	a1,s11,9
    2002:	9622                	add	a2,a2,s0
    2004:	95a2                	add	a1,a1,s0
    2006:	84fff0ef          	jal	ra,1854 <USBH_EnumHubPortDevice>
    200a:	87aa                	mv	a5,a0
    200c:	9da2                	add	s11,s11,s0
    200e:	e131                	bnez	a0,2052 <USBH_MainDeal+0x47c>
    2010:	008dc703          	lbu	a4,8(s11)
    2014:	01571a63          	bne	a4,s5,2028 <USBH_MainDeal+0x452>
    2018:	00bdc583          	lbu	a1,11(s11)
    201c:	00cdc503          	lbu	a0,12(s11)
    2020:	a41ff0ef          	jal	ra,1a60 <USBH_EnumHidDevice>
    2024:	87aa                	mv	a5,a0
    2026:	f52d                	bnez	a0,1f90 <USBH_MainDeal+0x3ba>
    2028:	015d83a3          	sb	s5,7(s11)
    202c:	b795                	j	1f90 <USBH_MainDeal+0x3ba>
    202e:	01d14683          	lbu	a3,29(sp)
    2032:	01bb1db3          	sll	s11,s6,s11
    2036:	fffdcd93          	not	s11,s11
    203a:	00ddfdb3          	and	s11,s11,a3
    203e:	033c06b3          	mul	a3,s8,s3
    2042:	01b10ea3          	sb	s11,29(sp)
    2046:	96a2                	add	a3,a3,s0
    2048:	0076c683          	lbu	a3,7(a3)
    204c:	f56692e3          	bne	a3,s6,1f90 <USBH_MainDeal+0x3ba>
    2050:	bf8d                	j	1fc2 <USBH_MainDeal+0x3ec>
    2052:	01ad83a3          	sb	s10,7(s11)
    2056:	bf2d                	j	1f90 <USBH_MainDeal+0x3ba>
    2058:	4719                	li	a4,6
    205a:	02e98733          	mul	a4,s3,a4
    205e:	460d                	li	a2,3
    2060:	9722                	add	a4,a4,s0
    2062:	00774683          	lbu	a3,7(a4)
    2066:	18c69063          	bne	a3,a2,21e6 <USBH_MainDeal+0x610>
    206a:	00874603          	lbu	a2,8(a4)
    206e:	16d61c63          	bne	a2,a3,21e6 <USBH_MainDeal+0x610>
    2072:	00c74b03          	lbu	s6,12(a4)
    2076:	10a00713          	li	a4,266
    207a:	4a01                	li	s4,0
    207c:	02eb0b33          	mul	s6,s6,a4
    2080:	01690733          	add	a4,s2,s6
    2084:	c05a                	sw	s6,0(sp)
    2086:	c23a                	sw	a4,4(sp)
    2088:	4712                	lw	a4,4(sp)
    208a:	00074703          	lbu	a4,0(a4)
    208e:	14ea7c63          	bgeu	s4,a4,21e6 <USBH_MainDeal+0x610>
    2092:	04200c93          	li	s9,66
    2096:	039a0cb3          	mul	s9,s4,s9
    209a:	4a99                	li	s5,6
    209c:	4702                	lw	a4,0(sp)
    209e:	4481                	li	s1,0
    20a0:	03598ab3          	mul	s5,s3,s5
    20a4:	00ec8bb3          	add	s7,s9,a4
    20a8:	9bca                	add	s7,s7,s2
    20aa:	9aa2                	add	s5,s5,s0
    20ac:	a8c5                	j	219c <USBH_MainDeal+0x5c6>
    20ae:	009b86b3          	add	a3,s7,s1
    20b2:	0226c703          	lbu	a4,34(a3)
    20b6:	01e6c603          	lbu	a2,30(a3)
    20ba:	0cc76463          	bltu	a4,a2,2182 <USBH_MainDeal+0x5ac>
    20be:	02c77733          	remu	a4,a4,a2
    20c2:	009ac503          	lbu	a0,9(s5)
    20c6:	02e68123          	sb	a4,34(a3)
    20ca:	2469                	jal	2354 <USBFSH_SetSelfAddr>
    20cc:	00aac503          	lbu	a0,10(s5)
    20d0:	2c71                	jal	236c <USBFSH_SetSelfSpeed>
    20d2:	00344783          	lbu	a5,3(s0)
    20d6:	cb89                	beqz	a5,20e8 <USBH_MainDeal+0x512>
    20d8:	50000737          	lui	a4,0x50000
    20dc:	00174783          	lbu	a5,1(a4) # 50000001 <_eusrstack+0x2fffb001>
    20e0:	0fb7f793          	andi	a5,a5,251
    20e4:	00f700a3          	sb	a5,1(a4)
    20e8:	009b87b3          	add	a5,s7,s1
    20ec:	01ab0593          	addi	a1,s6,26
    20f0:	0097c503          	lbu	a0,9(a5)
    20f4:	95e6                	add	a1,a1,s9
    20f6:	95a6                	add	a1,a1,s1
    20f8:	01e10693          	addi	a3,sp,30
    20fc:	f8818613          	addi	a2,gp,-120 # 20000960 <Com_Buf>
    2100:	95ca                	add	a1,a1,s2
    2102:	7b4000ef          	jal	ra,28b6 <USBFSH_GetEndpData>
    2106:	87aa                	mv	a5,a0
    2108:	0c051b63          	bnez	a0,21de <USBH_MainDeal+0x608>
    210c:	01e15e83          	lhu	t4,30(sp)
    2110:	8d81c803          	lbu	a6,-1832(gp) # 200002b0 <KB_Data_Pack_Full>
    2114:	8cc1c303          	lbu	t1,-1844(gp) # 200002a4 <KB_Data_Buffer_Full>
    2118:	8cc18593          	addi	a1,gp,-1844 # 200002a4 <KB_Data_Buffer_Full>
    211c:	8d91cf03          	lbu	t5,-1831(gp) # 200002b1 <KB_Data_State>
    2120:	4881                	li	a7,0
    2122:	4701                	li	a4,0
    2124:	4e01                	li	t3,0
    2126:	8d818513          	addi	a0,gp,-1832 # 200002b0 <KB_Data_Pack_Full>
    212a:	8c418693          	addi	a3,gp,-1852 # 2000029c <KB_Data_Buffer>
    212e:	01071613          	slli	a2,a4,0x10
    2132:	8241                	srli	a2,a2,0x10
    2134:	07d66f63          	bltu	a2,t4,21b2 <USBH_MainDeal+0x5dc>
    2138:	000e0463          	beqz	t3,2140 <USBH_MainDeal+0x56a>
    213c:	00658023          	sb	t1,0(a1)
    2140:	00088463          	beqz	a7,2148 <USBH_MainDeal+0x572>
    2144:	01050023          	sb	a6,0(a0)
    2148:	8d81c703          	lbu	a4,-1832(gp) # 200002b0 <KB_Data_Pack_Full>
    214c:	8cc1c603          	lbu	a2,-1844(gp) # 200002a4 <KB_Data_Buffer_Full>
    2150:	8d818693          	addi	a3,gp,-1832 # 200002b0 <KB_Data_Pack_Full>
    2154:	c436                	sw	a3,8(sp)
    2156:	8cc18693          	addi	a3,gp,-1844 # 200002a4 <KB_Data_Buffer_Full>
    215a:	9732                	add	a4,a4,a2
    215c:	c636                	sw	a3,12(sp)
    215e:	c315                	beqz	a4,2182 <USBH_MainDeal+0x5ac>
    2160:	8041c683          	lbu	a3,-2044(gp) # 200001dc <new_descripter>
    2164:	8d91c603          	lbu	a2,-1831(gp) # 200002b1 <KB_Data_State>
    2168:	8d918d13          	addi	s10,gp,-1831 # 200002b1 <KB_Data_State>
    216c:	c651                	beqz	a2,21f8 <USBH_MainDeal+0x622>
    216e:	e2c1                	bnez	a3,21ee <USBH_MainDeal+0x618>
    2170:	4621                	li	a2,8
    2172:	8c418593          	addi	a1,gp,-1852 # 2000029c <KB_Data_Buffer>
    2176:	4505                	li	a0,1
    2178:	256020ef          	jal	ra,43ce <USBD_ENDPx_DataUp>
    217c:	87aa                	mv	a5,a0
    217e:	e959                	bnez	a0,2214 <USBH_MainDeal+0x63e>
    2180:	4781                	li	a5,0
    2182:	40011537          	lui	a0,0x40011
    2186:	4605                	li	a2,1
    2188:	4585                	li	a1,1
    218a:	80050513          	addi	a0,a0,-2048 # 40010800 <_eusrstack+0x2000b800>
    218e:	c43e                	sw	a5,8(sp)
    2190:	3a1000ef          	jal	ra,2d30 <GPIO_WriteBit>
    2194:	47a2                	lw	a5,8(sp)
    2196:	0485                	addi	s1,s1,1
    2198:	0ff4f493          	andi	s1,s1,255
    219c:	008bc703          	lbu	a4,8(s7)
    21a0:	f0e4e7e3          	bltu	s1,a4,20ae <USBH_MainDeal+0x4d8>
    21a4:	4759                	li	a4,22
    21a6:	02e78f63          	beq	a5,a4,21e4 <USBH_MainDeal+0x60e>
    21aa:	0a05                	addi	s4,s4,1
    21ac:	0ffa7a13          	andi	s4,s4,255
    21b0:	bde1                	j	2088 <USBH_MainDeal+0x4b2>
    21b2:	f8818613          	addi	a2,gp,-120 # 20000960 <Com_Buf>
    21b6:	963a                	add	a2,a2,a4
    21b8:	00064603          	lbu	a2,0(a2)
    21bc:	000f0a63          	beqz	t5,21d0 <USBH_MainDeal+0x5fa>
    21c0:	00e68333          	add	t1,a3,a4
    21c4:	00c30023          	sb	a2,0(t1)
    21c8:	4e05                	li	t3,1
    21ca:	4305                	li	t1,1
    21cc:	0705                	addi	a4,a4,1
    21ce:	b785                	j	212e <USBH_MainDeal+0x558>
    21d0:	00ec0833          	add	a6,s8,a4
    21d4:	00c80023          	sb	a2,0(a6)
    21d8:	4885                	li	a7,1
    21da:	4805                	li	a6,1
    21dc:	bfc5                	j	21cc <USBH_MainDeal+0x5f6>
    21de:	4759                	li	a4,22
    21e0:	f6e514e3          	bne	a0,a4,2148 <USBH_MainDeal+0x572>
    21e4:	47d9                	li	a5,22
    21e6:	0985                	addi	s3,s3,1
    21e8:	0ff9f993          	andi	s3,s3,255
    21ec:	b1dd                	j	1ed2 <USBH_MainDeal+0x2fc>
    21ee:	4605                	li	a2,1
    21f0:	04c69463          	bne	a3,a2,2238 <USBH_MainDeal+0x662>
    21f4:	4611                	li	a2,4
    21f6:	bfb5                	j	2172 <USBH_MainDeal+0x59c>
    21f8:	dea5                	beqz	a3,2170 <USBH_MainDeal+0x59a>
    21fa:	4605                	li	a2,1
    21fc:	fec68ce3          	beq	a3,a2,21f4 <USBH_MainDeal+0x61e>
    2200:	d3c1                	beqz	a5,2180 <USBH_MainDeal+0x5aa>
    2202:	4685                	li	a3,1
    2204:	000c2023          	sw	zero,0(s8)
    2208:	000c2223          	sw	zero,4(s8)
    220c:	00dd0023          	sb	a3,0(s10)
    2210:	4722                	lw	a4,8(sp)
    2212:	a829                	j	222c <USBH_MainDeal+0x656>
    2214:	000d4683          	lbu	a3,0(s10)
    2218:	d6ed                	beqz	a3,2202 <USBH_MainDeal+0x62c>
    221a:	4732                	lw	a4,12(sp)
    221c:	8c418693          	addi	a3,gp,-1852 # 2000029c <KB_Data_Buffer>
    2220:	0006a023          	sw	zero,0(a3)
    2224:	0006a223          	sw	zero,4(a3)
    2228:	000d0023          	sb	zero,0(s10)
    222c:	00070023          	sb	zero,0(a4)
    2230:	bf89                	j	2182 <USBH_MainDeal+0x5ac>
    2232:	c60790e3          	bnez	a5,1e92 <USBH_MainDeal+0x2bc>
    2236:	b6b1                	j	1d82 <USBH_MainDeal+0x1ac>
    2238:	d7a1                	beqz	a5,2180 <USBH_MainDeal+0x5aa>
    223a:	b7c5                	j	221a <USBH_MainDeal+0x644>

0000223c <USBFSH_SetSelfSpeed.part.0>:
    223c:	50000737          	lui	a4,0x50000
    2240:	00074783          	lbu	a5,0(a4) # 50000000 <_eusrstack+0x2fffb000>
    2244:	0bf7f793          	andi	a5,a5,191
    2248:	00f70023          	sb	a5,0(a4)
    224c:	00174783          	lbu	a5,1(a4)
    2250:	0fb7f793          	andi	a5,a5,251
    2254:	00f700a3          	sb	a5,1(a4)
    2258:	03675783          	lhu	a5,54(a4)
    225c:	07c2                	slli	a5,a5,0x10
    225e:	83c1                	srli	a5,a5,0x10
    2260:	bff7f793          	andi	a5,a5,-1025
    2264:	07c2                	slli	a5,a5,0x10
    2266:	83c1                	srli	a5,a5,0x10
    2268:	02f71b23          	sh	a5,54(a4)
    226c:	8082                	ret

0000226e <USBFS_RCC_Init>:
    226e:	f03fd2ef          	jal	t0,170 <__riscv_save_0>
    2272:	200007b7          	lui	a5,0x20000
    2276:	1d87a703          	lw	a4,472(a5) # 200001d8 <SystemCoreClock>
    227a:	089547b7          	lui	a5,0x8954
    227e:	40078793          	addi	a5,a5,1024 # 8954400 <_data_lma+0x894e06c>
    2282:	4509                	li	a0,2
    2284:	02f70063          	beq	a4,a5,22a4 <USBFS_RCC_Init+0x36>
    2288:	05b8e7b7          	lui	a5,0x5b8e
    228c:	80078793          	addi	a5,a5,-2048 # 5b8d800 <_data_lma+0x5b8746c>
    2290:	4505                	li	a0,1
    2292:	00f70963          	beq	a4,a5,22a4 <USBFS_RCC_Init+0x36>
    2296:	02dc77b7          	lui	a5,0x2dc7
    229a:	c0078793          	addi	a5,a5,-1024 # 2dc6c00 <_data_lma+0x2dc086c>
    229e:	00f71563          	bne	a4,a5,22a8 <USBFS_RCC_Init+0x3a>
    22a2:	4501                	li	a0,0
    22a4:	365000ef          	jal	ra,2e08 <RCC_USBCLKConfig>
    22a8:	4585                	li	a1,1
    22aa:	6505                	lui	a0,0x1
    22ac:	43d000ef          	jal	ra,2ee8 <RCC_AHBPeriphClockCmd>
    22b0:	ee5fd06f          	j	194 <__riscv_restore_0>

000022b4 <USBFS_Host_Init>:
    22b4:	ebdfd2ef          	jal	t0,170 <__riscv_save_0>
    22b8:	4785                	li	a5,1
    22ba:	50000437          	lui	s0,0x50000
    22be:	02f51e63          	bne	a0,a5,22fa <USBFS_Host_Init+0x46>
    22c2:	4799                	li	a5,6
    22c4:	00f40023          	sb	a5,0(s0) # 50000000 <_eusrstack+0x2fffb000>
    22c8:	4529                	li	a0,10
    22ca:	275020ef          	jal	ra,4d3e <Delay_Us>
    22ce:	f8900793          	li	a5,-119
    22d2:	00040023          	sb	zero,0(s0)
    22d6:	00f40023          	sb	a5,0(s0)
    22da:	04800793          	li	a5,72
    22de:	00f406a3          	sb	a5,13(s0)
    22e2:	200017b7          	lui	a5,0x20001
    22e6:	30878793          	addi	a5,a5,776 # 20001308 <USBFS_RX_Buf>
    22ea:	cc1c                	sw	a5,24(s0)
    22ec:	200017b7          	lui	a5,0x20001
    22f0:	34878793          	addi	a5,a5,840 # 20001348 <USBFS_TX_Buf>
    22f4:	cc5c                	sw	a5,28(s0)
    22f6:	e9ffd06f          	j	194 <__riscv_restore_0>
    22fa:	4799                	li	a5,6
    22fc:	00f40023          	sb	a5,0(s0)
    2300:	4529                	li	a0,10
    2302:	23d020ef          	jal	ra,4d3e <Delay_Us>
    2306:	00040023          	sb	zero,0(s0)
    230a:	b7f5                	j	22f6 <USBFS_Host_Init+0x42>

0000230c <USBFSH_CheckRootHubPortStatus>:
    230c:	50000737          	lui	a4,0x50000
    2310:	00674783          	lbu	a5,6(a4) # 50000006 <_eusrstack+0x2fffb006>
    2314:	8b85                	andi	a5,a5,1
    2316:	c39d                	beqz	a5,233c <USBFSH_CheckRootHubPortStatus+0x30>
    2318:	4785                	li	a5,1
    231a:	00f70323          	sb	a5,6(a4)
    231e:	00574683          	lbu	a3,5(a4)
    2322:	4781                	li	a5,0
    2324:	8a85                	andi	a3,a3,1
    2326:	ce81                	beqz	a3,233e <USBFSH_CheckRootHubPortStatus+0x32>
    2328:	4785                	li	a5,1
    232a:	c911                	beqz	a0,233e <USBFSH_CheckRootHubPortStatus+0x32>
    232c:	4789                	li	a5,2
    232e:	00f50763          	beq	a0,a5,233c <USBFSH_CheckRootHubPortStatus+0x30>
    2332:	00174703          	lbu	a4,1(a4)
    2336:	4785                	li	a5,1
    2338:	8b05                	andi	a4,a4,1
    233a:	c311                	beqz	a4,233e <USBFSH_CheckRootHubPortStatus+0x32>
    233c:	4789                	li	a5,2
    233e:	853e                	mv	a0,a5
    2340:	8082                	ret

00002342 <USBFSH_CheckRootHubPortSpeed>:
    2342:	500007b7          	lui	a5,0x50000
    2346:	0057c503          	lbu	a0,5(a5) # 50000005 <_eusrstack+0x2fffb005>
    234a:	8105                	srli	a0,a0,0x1
    234c:	00154513          	xori	a0,a0,1
    2350:	8905                	andi	a0,a0,1
    2352:	8082                	ret

00002354 <USBFSH_SetSelfAddr>:
    2354:	50000737          	lui	a4,0x50000
    2358:	00374783          	lbu	a5,3(a4) # 50000003 <_eusrstack+0x2fffb003>
    235c:	07f57513          	andi	a0,a0,127
    2360:	0807f793          	andi	a5,a5,128
    2364:	8fc9                	or	a5,a5,a0
    2366:	00f701a3          	sb	a5,3(a4)
    236a:	8082                	ret

0000236c <USBFSH_SetSelfSpeed>:
    236c:	4785                	li	a5,1
    236e:	00f51763          	bne	a0,a5,237c <USBFSH_SetSelfSpeed+0x10>
    2372:	dfffd2ef          	jal	t0,170 <__riscv_save_0>
    2376:	35d9                	jal	223c <USBFSH_SetSelfSpeed.part.0>
    2378:	e1dfd06f          	j	194 <__riscv_restore_0>
    237c:	500007b7          	lui	a5,0x50000
    2380:	0007c703          	lbu	a4,0(a5) # 50000000 <_eusrstack+0x2fffb000>
    2384:	04076713          	ori	a4,a4,64
    2388:	00e78023          	sb	a4,0(a5)
    238c:	0017c703          	lbu	a4,1(a5)
    2390:	00476713          	ori	a4,a4,4
    2394:	00e780a3          	sb	a4,1(a5)
    2398:	0367d703          	lhu	a4,54(a5)
    239c:	40076713          	ori	a4,a4,1024
    23a0:	02e79b23          	sh	a4,54(a5)
    23a4:	8082                	ret

000023a6 <USBFSH_ResetRootHubPort>:
    23a6:	dcbfd2ef          	jal	t0,170 <__riscv_save_0>
    23aa:	842a                	mv	s0,a0
    23ac:	4501                	li	a0,0
    23ae:	375d                	jal	2354 <USBFSH_SetSelfAddr>
    23b0:	3571                	jal	223c <USBFSH_SetSelfSpeed.part.0>
    23b2:	4785                	li	a5,1
    23b4:	0087ee63          	bltu	a5,s0,23d0 <USBFSH_ResetRootHubPort+0x2a>
    23b8:	50000737          	lui	a4,0x50000
    23bc:	00174783          	lbu	a5,1(a4) # 50000001 <_eusrstack+0x2fffb001>
    23c0:	0027e793          	ori	a5,a5,2
    23c4:	00f700a3          	sb	a5,1(a4)
    23c8:	ec01                	bnez	s0,23e0 <USBFSH_ResetRootHubPort+0x3a>
    23ca:	452d                	li	a0,11
    23cc:	1a9020ef          	jal	ra,4d74 <Delay_Ms>
    23d0:	50000737          	lui	a4,0x50000
    23d4:	00174783          	lbu	a5,1(a4) # 50000001 <_eusrstack+0x2fffb001>
    23d8:	0fd7f793          	andi	a5,a5,253
    23dc:	00f700a3          	sb	a5,1(a4)
    23e0:	4509                	li	a0,2
    23e2:	193020ef          	jal	ra,4d74 <Delay_Ms>
    23e6:	500007b7          	lui	a5,0x50000
    23ea:	0067c703          	lbu	a4,6(a5) # 50000006 <_eusrstack+0x2fffb006>
    23ee:	8b05                	andi	a4,a4,1
    23f0:	cb01                	beqz	a4,2400 <USBFSH_ResetRootHubPort+0x5a>
    23f2:	0057c703          	lbu	a4,5(a5)
    23f6:	8b05                	andi	a4,a4,1
    23f8:	c701                	beqz	a4,2400 <USBFSH_ResetRootHubPort+0x5a>
    23fa:	4705                	li	a4,1
    23fc:	00e78323          	sb	a4,6(a5)
    2400:	d95fd06f          	j	194 <__riscv_restore_0>

00002404 <USBFSH_EnableRootHubPort>:
    2404:	50000737          	lui	a4,0x50000
    2408:	00574783          	lbu	a5,5(a4) # 50000005 <_eusrstack+0x2fffb005>
    240c:	8b85                	andi	a5,a5,1
    240e:	cf95                	beqz	a5,244a <USBFSH_EnableRootHubPort+0x46>
    2410:	d61fd2ef          	jal	t0,170 <__riscv_save_0>
    2414:	00174783          	lbu	a5,1(a4)
    2418:	8b85                	andi	a5,a5,1
    241a:	e799                	bnez	a5,2428 <USBFSH_EnableRootHubPort+0x24>
    241c:	842a                	mv	s0,a0
    241e:	3715                	jal	2342 <USBFSH_CheckRootHubPortSpeed>
    2420:	00a40023          	sb	a0,0(s0)
    2424:	e111                	bnez	a0,2428 <USBFSH_EnableRootHubPort+0x24>
    2426:	3799                	jal	236c <USBFSH_SetSelfSpeed>
    2428:	500007b7          	lui	a5,0x50000
    242c:	0017c703          	lbu	a4,1(a5) # 50000001 <_eusrstack+0x2fffb001>
    2430:	4501                	li	a0,0
    2432:	00176713          	ori	a4,a4,1
    2436:	00e780a3          	sb	a4,1(a5)
    243a:	0367d703          	lhu	a4,54(a5)
    243e:	00476713          	ori	a4,a4,4
    2442:	02e79b23          	sh	a4,54(a5)
    2446:	d4ffd06f          	j	194 <__riscv_restore_0>
    244a:	4559                	li	a0,22
    244c:	8082                	ret

0000244e <USBFSH_Transact>:
    244e:	cfbfd2ef          	jal	t0,148 <__riscv_save_10>
    2452:	500007b7          	lui	a5,0x50000
    2456:	02b78da3          	sb	a1,59(a5) # 5000003b <_eusrstack+0x2fffb03b>
    245a:	6a41                	lui	s4,0x10
    245c:	8b2a                	mv	s6,a0
    245e:	8932                	mv	s2,a2
    2460:	02b78f23          	sb	a1,62(a5)
    2464:	00455993          	srli	s3,a0,0x4
    2468:	4481                	li	s1,0
    246a:	50000437          	lui	s0,0x50000
    246e:	4b89                	li	s7,2
    2470:	4c39                	li	s8,14
    2472:	4aa9                	li	s5,10
    2474:	4ca5                	li	s9,9
    2476:	1a7d                	addi	s4,s4,-1
    2478:	03640c23          	sb	s6,56(s0) # 50000038 <_eusrstack+0x2fffb038>
    247c:	01740323          	sb	s7,6(s0)
    2480:	3e800d13          	li	s10,1000
    2484:	00644783          	lbu	a5,6(s0)
    2488:	8b89                	andi	a5,a5,2
    248a:	eb91                	bnez	a5,249e <USBFSH_Transact+0x50>
    248c:	1d7d                	addi	s10,s10,-1
    248e:	0d42                	slli	s10,s10,0x10
    2490:	4505                	li	a0,1
    2492:	010d5d13          	srli	s10,s10,0x10
    2496:	0a9020ef          	jal	ra,4d3e <Delay_Us>
    249a:	fe0d15e3          	bnez	s10,2484 <USBFSH_Transact+0x36>
    249e:	02040c23          	sb	zero,56(s0)
    24a2:	00644783          	lbu	a5,6(s0)
    24a6:	8b89                	andi	a5,a5,2
    24a8:	e781                	bnez	a5,24b0 <USBFSH_Transact+0x62>
    24aa:	0fe00513          	li	a0,254
    24ae:	a041                	j	252e <USBFSH_Transact+0xe0>
    24b0:	00744783          	lbu	a5,7(s0)
    24b4:	0407f793          	andi	a5,a5,64
    24b8:	e3d1                	bnez	a5,253c <USBFSH_Transact+0xee>
    24ba:	00744783          	lbu	a5,7(s0)
    24be:	0ff7f793          	andi	a5,a5,255
    24c2:	00f7f513          	andi	a0,a5,15
    24c6:	07850d63          	beq	a0,s8,2540 <USBFSH_Transact+0xf2>
    24ca:	05551763          	bne	a0,s5,2518 <USBFSH_Transact+0xca>
    24ce:	06090c63          	beqz	s2,2546 <USBFSH_Transact+0xf8>
    24d2:	01490663          	beq	s2,s4,24de <USBFSH_Transact+0x90>
    24d6:	197d                	addi	s2,s2,-1
    24d8:	0942                	slli	s2,s2,0x10
    24da:	01095913          	srli	s2,s2,0x10
    24de:	14fd                	addi	s1,s1,-1
    24e0:	0ff4f493          	andi	s1,s1,255
    24e4:	4551                	li	a0,20
    24e6:	059020ef          	jal	ra,4d3e <Delay_Us>
    24ea:	00644783          	lbu	a5,6(s0)
    24ee:	8b85                	andi	a5,a5,1
    24f0:	cf81                	beqz	a5,2508 <USBFSH_Transact+0xba>
    24f2:	0c800513          	li	a0,200
    24f6:	049020ef          	jal	ra,4d3e <Delay_Us>
    24fa:	00144783          	lbu	a5,1(s0)
    24fe:	8b85                	andi	a5,a5,1
    2500:	c7b1                	beqz	a5,254c <USBFSH_Transact+0xfe>
    2502:	4785                	li	a5,1
    2504:	00f40323          	sb	a5,6(s0)
    2508:	0485                	addi	s1,s1,1
    250a:	0ff4f493          	andi	s1,s1,255
    250e:	f75495e3          	bne	s1,s5,2478 <USBFSH_Transact+0x2a>
    2512:	02000513          	li	a0,32
    2516:	a821                	j	252e <USBFSH_Transact+0xe0>
    2518:	01998d63          	beq	s3,s9,2532 <USBFSH_Transact+0xe4>
    251c:	47b5                	li	a5,13
    251e:	00f98563          	beq	s3,a5,2528 <USBFSH_Transact+0xda>
    2522:	4785                	li	a5,1
    2524:	f8f993e3          	bne	s3,a5,24aa <USBFSH_Transact+0x5c>
    2528:	dd55                	beqz	a0,24e4 <USBFSH_Transact+0x96>
    252a:	02056513          	ori	a0,a0,32
    252e:	c53fd06f          	j	180 <__riscv_restore_10>
    2532:	8b9d                	andi	a5,a5,7
    2534:	470d                	li	a4,3
    2536:	fee799e3          	bne	a5,a4,2528 <USBFSH_Transact+0xda>
    253a:	b76d                	j	24e4 <USBFSH_Transact+0x96>
    253c:	4501                	li	a0,0
    253e:	bfc5                	j	252e <USBFSH_Transact+0xe0>
    2540:	02e00513          	li	a0,46
    2544:	b7ed                	j	252e <USBFSH_Transact+0xe0>
    2546:	02a00513          	li	a0,42
    254a:	b7d5                	j	252e <USBFSH_Transact+0xe0>
    254c:	4559                	li	a0,22
    254e:	b7c5                	j	252e <USBFSH_Transact+0xe0>

00002550 <USBFSH_CtrlTransfer>:
    2550:	bf9fd2ef          	jal	t0,148 <__riscv_save_10>
    2554:	89aa                	mv	s3,a0
    2556:	84b2                	mv	s1,a2
    2558:	06400513          	li	a0,100
    255c:	892e                	mv	s2,a1
    255e:	7e0020ef          	jal	ra,4d3e <Delay_Us>
    2562:	c099                	beqz	s1,2568 <USBFSH_CtrlTransfer+0x18>
    2564:	00049023          	sh	zero,0(s1)
    2568:	50000437          	lui	s0,0x50000
    256c:	47a1                	li	a5,8
    256e:	6a89                	lui	s5,0x2
    2570:	02f41e23          	sh	a5,60(s0) # 5000003c <_eusrstack+0x2fffb03c>
    2574:	710a8613          	addi	a2,s5,1808 # 2710 <USBFSH_GetDeviceDescr+0x8>
    2578:	4581                	li	a1,0
    257a:	0d000513          	li	a0,208
    257e:	3dc1                	jal	244e <USBFSH_Transact>
    2580:	14051d63          	bnez	a0,26da <USBFSH_CtrlTransfer+0x18a>
    2584:	4791                	li	a5,4
    2586:	02f40da3          	sb	a5,59(s0)
    258a:	20001b37          	lui	s6,0x20001
    258e:	02f40f23          	sb	a5,62(s0)
    2592:	348b0793          	addi	a5,s6,840 # 20001348 <USBFS_TX_Buf>
    2596:	0067d403          	lhu	s0,6(a5)
    259a:	348b0b13          	addi	s6,s6,840
    259e:	0e040d63          	beqz	s0,2698 <USBFSH_CtrlTransfer+0x148>
    25a2:	0e090b63          	beqz	s2,2698 <USBFSH_CtrlTransfer+0x148>
    25a6:	00078783          	lb	a5,0(a5)
    25aa:	0607c563          	bltz	a5,2614 <USBFSH_CtrlTransfer+0xc4>
    25ae:	8bce                	mv	s7,s3
    25b0:	09c2                	slli	s3,s3,0x10
    25b2:	0109d993          	srli	s3,s3,0x10
    25b6:	50000a37          	lui	s4,0x50000
    25ba:	710a8a93          	addi	s5,s5,1808
    25be:	06400513          	li	a0,100
    25c2:	77c020ef          	jal	ra,4d3e <Delay_Us>
    25c6:	87de                	mv	a5,s7
    25c8:	01347363          	bgeu	s0,s3,25ce <USBFSH_CtrlTransfer+0x7e>
    25cc:	87a2                	mv	a5,s0
    25ce:	02fa1e23          	sh	a5,60(s4) # 5000003c <_eusrstack+0x2fffb03c>
    25d2:	4781                	li	a5,0
    25d4:	03ca5703          	lhu	a4,60(s4)
    25d8:	10e79d63          	bne	a5,a4,26f2 <USBFSH_CtrlTransfer+0x1a2>
    25dc:	03ea4583          	lbu	a1,62(s4)
    25e0:	8656                	mv	a2,s5
    25e2:	4541                	li	a0,16
    25e4:	35ad                	jal	244e <USBFSH_Transact>
    25e6:	0e051a63          	bnez	a0,26da <USBFSH_CtrlTransfer+0x18a>
    25ea:	03ea4783          	lbu	a5,62(s4)
    25ee:	0047c793          	xori	a5,a5,4
    25f2:	02fa0f23          	sb	a5,62(s4)
    25f6:	03ca5783          	lhu	a5,60(s4)
    25fa:	8c1d                	sub	s0,s0,a5
    25fc:	0442                	slli	s0,s0,0x10
    25fe:	8041                	srli	s0,s0,0x10
    2600:	c881                	beqz	s1,2610 <USBFSH_CtrlTransfer+0xc0>
    2602:	03ca5783          	lhu	a5,60(s4)
    2606:	0004d703          	lhu	a4,0(s1)
    260a:	97ba                	add	a5,a5,a4
    260c:	00f49023          	sh	a5,0(s1)
    2610:	f45d                	bnez	s0,25be <USBFSH_CtrlTransfer+0x6e>
    2612:	a059                	j	2698 <USBFSH_CtrlTransfer+0x148>
    2614:	20001b37          	lui	s6,0x20001
    2618:	50000a37          	lui	s4,0x50000
    261c:	710a8a93          	addi	s5,s5,1808
    2620:	308b0b13          	addi	s6,s6,776 # 20001308 <USBFS_RX_Buf>
    2624:	19fd                	addi	s3,s3,-1
    2626:	06400513          	li	a0,100
    262a:	714020ef          	jal	ra,4d3e <Delay_Us>
    262e:	03ba4583          	lbu	a1,59(s4) # 5000003b <_eusrstack+0x2fffb03b>
    2632:	8656                	mv	a2,s5
    2634:	09000513          	li	a0,144
    2638:	3d19                	jal	244e <USBFSH_Transact>
    263a:	e145                	bnez	a0,26da <USBFSH_CtrlTransfer+0x18a>
    263c:	03ba4783          	lbu	a5,59(s4)
    2640:	0047c793          	xori	a5,a5,4
    2644:	02fa0da3          	sb	a5,59(s4)
    2648:	008a5703          	lhu	a4,8(s4)
    264c:	87a2                	mv	a5,s0
    264e:	00877663          	bgeu	a4,s0,265a <USBFSH_CtrlTransfer+0x10a>
    2652:	008a5783          	lhu	a5,8(s4)
    2656:	07c2                	slli	a5,a5,0x10
    2658:	83c1                	srli	a5,a5,0x10
    265a:	8c1d                	sub	s0,s0,a5
    265c:	0442                	slli	s0,s0,0x10
    265e:	8041                	srli	s0,s0,0x10
    2660:	c491                	beqz	s1,266c <USBFSH_CtrlTransfer+0x11c>
    2662:	0004d703          	lhu	a4,0(s1)
    2666:	973e                	add	a4,a4,a5
    2668:	00e49023          	sh	a4,0(s1)
    266c:	4701                	li	a4,0
    266e:	01071693          	slli	a3,a4,0x10
    2672:	82c1                	srli	a3,a3,0x10
    2674:	06d79563          	bne	a5,a3,26de <USBFSH_CtrlTransfer+0x18e>
    2678:	993e                	add	s2,s2,a5
    267a:	008a5783          	lhu	a5,8(s4)
    267e:	07c2                	slli	a5,a5,0x10
    2680:	83c1                	srli	a5,a5,0x10
    2682:	c799                	beqz	a5,2690 <USBFSH_CtrlTransfer+0x140>
    2684:	008a5783          	lhu	a5,8(s4)
    2688:	00f9f7b3          	and	a5,s3,a5
    268c:	e391                	bnez	a5,2690 <USBFSH_CtrlTransfer+0x140>
    268e:	fc41                	bnez	s0,2626 <USBFSH_CtrlTransfer+0xd6>
    2690:	500007b7          	lui	a5,0x50000
    2694:	02079e23          	sh	zero,60(a5) # 5000003c <_eusrstack+0x2fffb03c>
    2698:	06400513          	li	a0,100
    269c:	6a2020ef          	jal	ra,4d3e <Delay_Us>
    26a0:	500007b7          	lui	a5,0x50000
    26a4:	03c7d783          	lhu	a5,60(a5) # 5000003c <_eusrstack+0x2fffb03c>
    26a8:	09000513          	li	a0,144
    26ac:	07c2                	slli	a5,a5,0x10
    26ae:	83c1                	srli	a5,a5,0x10
    26b0:	e391                	bnez	a5,26b4 <USBFSH_CtrlTransfer+0x164>
    26b2:	4541                	li	a0,16
    26b4:	6609                	lui	a2,0x2
    26b6:	71060613          	addi	a2,a2,1808 # 2710 <USBFSH_GetDeviceDescr+0x8>
    26ba:	4591                	li	a1,4
    26bc:	3b49                	jal	244e <USBFSH_Transact>
    26be:	ed11                	bnez	a0,26da <USBFSH_CtrlTransfer+0x18a>
    26c0:	50000737          	lui	a4,0x50000
    26c4:	03c75783          	lhu	a5,60(a4) # 5000003c <_eusrstack+0x2fffb03c>
    26c8:	07c2                	slli	a5,a5,0x10
    26ca:	83c1                	srli	a5,a5,0x10
    26cc:	c799                	beqz	a5,26da <USBFSH_CtrlTransfer+0x18a>
    26ce:	00875783          	lhu	a5,8(a4)
    26d2:	07c2                	slli	a5,a5,0x10
    26d4:	83c1                	srli	a5,a5,0x10
    26d6:	c391                	beqz	a5,26da <USBFSH_CtrlTransfer+0x18a>
    26d8:	455d                	li	a0,23
    26da:	aa7fd06f          	j	180 <__riscv_restore_10>
    26de:	00eb06b3          	add	a3,s6,a4
    26e2:	0006c603          	lbu	a2,0(a3)
    26e6:	00e906b3          	add	a3,s2,a4
    26ea:	0705                	addi	a4,a4,1
    26ec:	00c68023          	sb	a2,0(a3)
    26f0:	bfbd                	j	266e <USBFSH_CtrlTransfer+0x11e>
    26f2:	00094683          	lbu	a3,0(s2)
    26f6:	00fb0733          	add	a4,s6,a5
    26fa:	0785                	addi	a5,a5,1
    26fc:	07c2                	slli	a5,a5,0x10
    26fe:	00d70023          	sb	a3,0(a4)
    2702:	0905                	addi	s2,s2,1
    2704:	83c1                	srli	a5,a5,0x10
    2706:	b5f9                	j	25d4 <USBFSH_CtrlTransfer+0x84>

00002708 <USBFSH_GetDeviceDescr>:
    2708:	a69fd2ef          	jal	t0,170 <__riscv_save_0>
    270c:	83c18413          	addi	s0,gp,-1988 # 20000214 <SetupGetDevDesc>
    2710:	47a1                	li	a5,8
    2712:	4018                	lw	a4,0(s0)
    2714:	00f50023          	sb	a5,0(a0) # 1000 <KM_AnalyzeConfigDesc>
    2718:	200017b7          	lui	a5,0x20001
    271c:	34878793          	addi	a5,a5,840 # 20001348 <USBFS_TX_Buf>
    2720:	c398                	sw	a4,0(a5)
    2722:	4058                	lw	a4,4(s0)
    2724:	84aa                	mv	s1,a0
    2726:	1141                	addi	sp,sp,-16
    2728:	c3d8                	sw	a4,4(a5)
    272a:	00054503          	lbu	a0,0(a0)
    272e:	00e10613          	addi	a2,sp,14
    2732:	892e                	mv	s2,a1
    2734:	3d31                	jal	2550 <USBFSH_CtrlTransfer>
    2736:	ed01                	bnez	a0,274e <USBFSH_GetDeviceDescr+0x46>
    2738:	00794783          	lbu	a5,7(s2)
    273c:	00645703          	lhu	a4,6(s0)
    2740:	00f48023          	sb	a5,0(s1)
    2744:	00e15783          	lhu	a5,14(sp)
    2748:	00e7f363          	bgeu	a5,a4,274e <USBFSH_GetDeviceDescr+0x46>
    274c:	455d                	li	a0,23
    274e:	0141                	addi	sp,sp,16
    2750:	a45fd06f          	j	194 <__riscv_restore_0>

00002754 <USBFSH_GetConfigDescr>:
    2754:	a03fd2ef          	jal	t0,156 <__riscv_save_4>
    2758:	83418713          	addi	a4,gp,-1996 # 2000020c <SetupGetCfgDesc>
    275c:	89b2                	mv	s3,a2
    275e:	4310                	lw	a2,0(a4)
    2760:	4358                	lw	a4,4(a4)
    2762:	20001437          	lui	s0,0x20001
    2766:	34840793          	addi	a5,s0,840 # 20001348 <USBFS_TX_Buf>
    276a:	1141                	addi	sp,sp,-16
    276c:	c390                	sw	a2,0(a5)
    276e:	c3d8                	sw	a4,4(a5)
    2770:	8636                	mv	a2,a3
    2772:	8a2a                	mv	s4,a0
    2774:	892e                	mv	s2,a1
    2776:	c636                	sw	a3,12(sp)
    2778:	3be1                	jal	2550 <USBFSH_CtrlTransfer>
    277a:	e529                	bnez	a0,27c4 <USBFSH_GetConfigDescr+0x70>
    277c:	46b2                	lw	a3,12(sp)
    277e:	83418713          	addi	a4,gp,-1996 # 2000020c <SetupGetCfgDesc>
    2782:	00675603          	lhu	a2,6(a4)
    2786:	0006d583          	lhu	a1,0(a3)
    278a:	455d                	li	a0,23
    278c:	02c5ec63          	bltu	a1,a2,27c4 <USBFSH_GetConfigDescr+0x70>
    2790:	00394603          	lbu	a2,3(s2)
    2794:	00294583          	lbu	a1,2(s2)
    2798:	34840793          	addi	a5,s0,840
    279c:	0622                	slli	a2,a2,0x8
    279e:	8e4d                	or	a2,a2,a1
    27a0:	85b2                	mv	a1,a2
    27a2:	00c9f363          	bgeu	s3,a2,27a8 <USBFSH_GetConfigDescr+0x54>
    27a6:	85ce                	mv	a1,s3
    27a8:	4310                	lw	a2,0(a4)
    27aa:	4358                	lw	a4,4(a4)
    27ac:	00b69023          	sh	a1,0(a3)
    27b0:	c390                	sw	a2,0(a5)
    27b2:	c3d8                	sw	a4,4(a5)
    27b4:	0006d703          	lhu	a4,0(a3)
    27b8:	8636                	mv	a2,a3
    27ba:	85ca                	mv	a1,s2
    27bc:	00e79323          	sh	a4,6(a5)
    27c0:	8552                	mv	a0,s4
    27c2:	3379                	jal	2550 <USBFSH_CtrlTransfer>
    27c4:	0141                	addi	sp,sp,16
    27c6:	9c5fd06f          	j	18a <__riscv_restore_4>

000027ca <USBFSH_GetStrDescr>:
    27ca:	98dfd2ef          	jal	t0,156 <__riscv_save_4>
    27ce:	84418793          	addi	a5,gp,-1980 # 2000021c <SetupGetStrDesc>
    27d2:	0007aa03          	lw	s4,0(a5)
    27d6:	20001437          	lui	s0,0x20001
    27da:	0047a983          	lw	s3,4(a5)
    27de:	34840413          	addi	s0,s0,840 # 20001348 <USBFS_TX_Buf>
    27e2:	1141                	addi	sp,sp,-16
    27e4:	84b2                	mv	s1,a2
    27e6:	3005e913          	ori	s2,a1,768
    27ea:	01442023          	sw	s4,0(s0)
    27ee:	00e10613          	addi	a2,sp,14
    27f2:	85a6                	mv	a1,s1
    27f4:	8aaa                	mv	s5,a0
    27f6:	01342223          	sw	s3,4(s0)
    27fa:	01241123          	sh	s2,2(s0)
    27fe:	3b89                	jal	2550 <USBFSH_CtrlTransfer>
    2800:	e115                	bnez	a0,2824 <USBFSH_GetStrDescr+0x5a>
    2802:	0004c783          	lbu	a5,0(s1)
    2806:	00e10613          	addi	a2,sp,14
    280a:	01442023          	sw	s4,0(s0)
    280e:	01342223          	sw	s3,4(s0)
    2812:	85a6                	mv	a1,s1
    2814:	8556                	mv	a0,s5
    2816:	00f11723          	sh	a5,14(sp)
    281a:	01241123          	sh	s2,2(s0)
    281e:	00f41323          	sh	a5,6(s0)
    2822:	333d                	jal	2550 <USBFSH_CtrlTransfer>
    2824:	0141                	addi	sp,sp,16
    2826:	965fd06f          	j	18a <__riscv_restore_4>

0000282a <USBFSH_SetUsbAddress>:
    282a:	947fd2ef          	jal	t0,170 <__riscv_save_0>
    282e:	84c18713          	addi	a4,gp,-1972 # 20000224 <SetupSetAddr>
    2832:	4314                	lw	a3,0(a4)
    2834:	200017b7          	lui	a5,0x20001
    2838:	4358                	lw	a4,4(a4)
    283a:	34878793          	addi	a5,a5,840 # 20001348 <USBFS_TX_Buf>
    283e:	c394                	sw	a3,0(a5)
    2840:	00b79123          	sh	a1,2(a5)
    2844:	84ae                	mv	s1,a1
    2846:	c3d8                	sw	a4,4(a5)
    2848:	4601                	li	a2,0
    284a:	4581                	li	a1,0
    284c:	d05ff0ef          	jal	ra,2550 <USBFSH_CtrlTransfer>
    2850:	842a                	mv	s0,a0
    2852:	e519                	bnez	a0,2860 <USBFSH_SetUsbAddress+0x36>
    2854:	8526                	mv	a0,s1
    2856:	affff0ef          	jal	ra,2354 <USBFSH_SetSelfAddr>
    285a:	4515                	li	a0,5
    285c:	518020ef          	jal	ra,4d74 <Delay_Ms>
    2860:	8522                	mv	a0,s0
    2862:	933fd06f          	j	194 <__riscv_restore_0>

00002866 <USBFSH_SetUsbConfig>:
    2866:	90bfd2ef          	jal	t0,170 <__riscv_save_0>
    286a:	85418713          	addi	a4,gp,-1964 # 2000022c <SetupSetConfig>
    286e:	4314                	lw	a3,0(a4)
    2870:	200017b7          	lui	a5,0x20001
    2874:	4358                	lw	a4,4(a4)
    2876:	34878793          	addi	a5,a5,840 # 20001348 <USBFS_TX_Buf>
    287a:	c394                	sw	a3,0(a5)
    287c:	00b79123          	sh	a1,2(a5)
    2880:	c3d8                	sw	a4,4(a5)
    2882:	4601                	li	a2,0
    2884:	4581                	li	a1,0
    2886:	ccbff0ef          	jal	ra,2550 <USBFSH_CtrlTransfer>
    288a:	90bfd06f          	j	194 <__riscv_restore_0>

0000288e <USBFSH_ClearEndpStall>:
    288e:	8e3fd2ef          	jal	t0,170 <__riscv_save_0>
    2892:	82c18713          	addi	a4,gp,-2004 # 20000204 <SetupClearEndpStall>
    2896:	4314                	lw	a3,0(a4)
    2898:	4358                	lw	a4,4(a4)
    289a:	200017b7          	lui	a5,0x20001
    289e:	34878793          	addi	a5,a5,840 # 20001348 <USBFS_TX_Buf>
    28a2:	c3d8                	sw	a4,4(a5)
    28a4:	00b79223          	sh	a1,4(a5)
    28a8:	c394                	sw	a3,0(a5)
    28aa:	4601                	li	a2,0
    28ac:	4581                	li	a1,0
    28ae:	ca3ff0ef          	jal	ra,2550 <USBFSH_CtrlTransfer>
    28b2:	8e3fd06f          	j	194 <__riscv_restore_0>

000028b6 <USBFSH_GetEndpData>:
    28b6:	8bbfd2ef          	jal	t0,170 <__riscv_save_0>
    28ba:	842e                	mv	s0,a1
    28bc:	0005c583          	lbu	a1,0(a1)
    28c0:	1141                	addi	sp,sp,-16
    28c2:	8932                	mv	s2,a2
    28c4:	09056513          	ori	a0,a0,144
    28c8:	4601                	li	a2,0
    28ca:	c636                	sw	a3,12(sp)
    28cc:	b83ff0ef          	jal	ra,244e <USBFSH_Transact>
    28d0:	84aa                	mv	s1,a0
    28d2:	46b2                	lw	a3,12(sp)
    28d4:	e515                	bnez	a0,2900 <USBFSH_GetEndpData+0x4a>
    28d6:	500007b7          	lui	a5,0x50000
    28da:	0087d603          	lhu	a2,8(a5) # 50000008 <_eusrstack+0x2fffb008>
    28de:	200015b7          	lui	a1,0x20001
    28e2:	30858593          	addi	a1,a1,776 # 20001308 <USBFS_RX_Buf>
    28e6:	0642                	slli	a2,a2,0x10
    28e8:	8241                	srli	a2,a2,0x10
    28ea:	00c69023          	sh	a2,0(a3)
    28ee:	854a                	mv	a0,s2
    28f0:	5a2020ef          	jal	ra,4e92 <memcpy>
    28f4:	00044783          	lbu	a5,0(s0)
    28f8:	0047c793          	xori	a5,a5,4
    28fc:	00f40023          	sb	a5,0(s0)
    2900:	8526                	mv	a0,s1
    2902:	0141                	addi	sp,sp,16
    2904:	891fd06f          	j	194 <__riscv_restore_0>

00002908 <USBFSH_SendEndpData>:
    2908:	869fd2ef          	jal	t0,170 <__riscv_save_0>
    290c:	84aa                	mv	s1,a0
    290e:	20001537          	lui	a0,0x20001
    2912:	1141                	addi	sp,sp,-16
    2914:	842e                	mv	s0,a1
    2916:	34850513          	addi	a0,a0,840 # 20001348 <USBFS_TX_Buf>
    291a:	85b2                	mv	a1,a2
    291c:	8636                	mv	a2,a3
    291e:	c636                	sw	a3,12(sp)
    2920:	572020ef          	jal	ra,4e92 <memcpy>
    2924:	46b2                	lw	a3,12(sp)
    2926:	500007b7          	lui	a5,0x50000
    292a:	4601                	li	a2,0
    292c:	02d79e23          	sh	a3,60(a5) # 5000003c <_eusrstack+0x2fffb03c>
    2930:	00044583          	lbu	a1,0(s0)
    2934:	0104e513          	ori	a0,s1,16
    2938:	b17ff0ef          	jal	ra,244e <USBFSH_Transact>
    293c:	e519                	bnez	a0,294a <USBFSH_SendEndpData+0x42>
    293e:	00044783          	lbu	a5,0(s0)
    2942:	0047c793          	xori	a5,a5,4
    2946:	00f40023          	sb	a5,0(s0)
    294a:	0141                	addi	sp,sp,16
    294c:	849fd06f          	j	194 <__riscv_restore_0>

00002950 <HID_GetHidDesr>:
    2950:	821fd2ef          	jal	t0,170 <__riscv_save_0>
    2954:	85c18713          	addi	a4,gp,-1956 # 20000234 <SetupGetHidDes>
    2958:	8832                	mv	a6,a2
    295a:	4310                	lw	a2,0(a4)
    295c:	4358                	lw	a4,4(a4)
    295e:	200017b7          	lui	a5,0x20001
    2962:	34c7a423          	sw	a2,840(a5) # 20001348 <USBFS_TX_Buf>
    2966:	34878793          	addi	a5,a5,840
    296a:	c3d8                	sw	a4,4(a5)
    296c:	00b79223          	sh	a1,4(a5)
    2970:	0006d703          	lhu	a4,0(a3)
    2974:	8636                	mv	a2,a3
    2976:	85c2                	mv	a1,a6
    2978:	00e79323          	sh	a4,6(a5)
    297c:	bd5ff0ef          	jal	ra,2550 <USBFSH_CtrlTransfer>
    2980:	815fd06f          	j	194 <__riscv_restore_0>

00002984 <HID_SetReport>:
    2984:	fecfd2ef          	jal	t0,170 <__riscv_save_0>
    2988:	86418713          	addi	a4,gp,-1948 # 2000023c <SetupSetReport>
    298c:	8832                	mv	a6,a2
    298e:	4310                	lw	a2,0(a4)
    2990:	4358                	lw	a4,4(a4)
    2992:	200017b7          	lui	a5,0x20001
    2996:	34c7a423          	sw	a2,840(a5) # 20001348 <USBFS_TX_Buf>
    299a:	34878793          	addi	a5,a5,840
    299e:	c3d8                	sw	a4,4(a5)
    29a0:	00b79223          	sh	a1,4(a5)
    29a4:	8636                	mv	a2,a3
    29a6:	85c2                	mv	a1,a6
    29a8:	ba9ff0ef          	jal	ra,2550 <USBFSH_CtrlTransfer>
    29ac:	fe8fd06f          	j	194 <__riscv_restore_0>

000029b0 <HID_SetIdle>:
    29b0:	fc0fd2ef          	jal	t0,170 <__riscv_save_0>
    29b4:	86c18713          	addi	a4,gp,-1940 # 20000244 <SetupSetidle>
    29b8:	00072803          	lw	a6,0(a4)
    29bc:	4358                	lw	a4,4(a4)
    29be:	200017b7          	lui	a5,0x20001
    29c2:	3507a423          	sw	a6,840(a5) # 20001348 <USBFS_TX_Buf>
    29c6:	0622                	slli	a2,a2,0x8
    29c8:	34878793          	addi	a5,a5,840
    29cc:	8ed1                	or	a3,a3,a2
    29ce:	c3d8                	sw	a4,4(a5)
    29d0:	00b79223          	sh	a1,4(a5)
    29d4:	00d79123          	sh	a3,2(a5)
    29d8:	4601                	li	a2,0
    29da:	4581                	li	a1,0
    29dc:	b75ff0ef          	jal	ra,2550 <USBFSH_CtrlTransfer>
    29e0:	fb4fd06f          	j	194 <__riscv_restore_0>

000029e4 <HUB_GetPortStatus>:
    29e4:	f8cfd2ef          	jal	t0,170 <__riscv_save_0>
    29e8:	88418713          	addi	a4,gp,-1916 # 2000025c <GetPortStatus>
    29ec:	86b2                	mv	a3,a2
    29ee:	4310                	lw	a2,0(a4)
    29f0:	4358                	lw	a4,4(a4)
    29f2:	200017b7          	lui	a5,0x20001
    29f6:	34c7a423          	sw	a2,840(a5) # 20001348 <USBFS_TX_Buf>
    29fa:	34878793          	addi	a5,a5,840
    29fe:	1141                	addi	sp,sp,-16
    2a00:	c3d8                	sw	a4,4(a5)
    2a02:	00b79223          	sh	a1,4(a5)
    2a06:	00e10613          	addi	a2,sp,14
    2a0a:	85b6                	mv	a1,a3
    2a0c:	b45ff0ef          	jal	ra,2550 <USBFSH_CtrlTransfer>
    2a10:	0141                	addi	sp,sp,16
    2a12:	f82fd06f          	j	194 <__riscv_restore_0>

00002a16 <HUB_ClearPortFeature>:
    2a16:	f5afd2ef          	jal	t0,170 <__riscv_save_0>
    2a1a:	87418713          	addi	a4,gp,-1932 # 2000024c <ClearPortFeature>
    2a1e:	4314                	lw	a3,0(a4)
    2a20:	4358                	lw	a4,4(a4)
    2a22:	200017b7          	lui	a5,0x20001
    2a26:	34d7a423          	sw	a3,840(a5) # 20001348 <USBFS_TX_Buf>
    2a2a:	34878793          	addi	a5,a5,840
    2a2e:	c3d8                	sw	a4,4(a5)
    2a30:	00c79123          	sh	a2,2(a5)
    2a34:	00b79223          	sh	a1,4(a5)
    2a38:	4601                	li	a2,0
    2a3a:	4581                	li	a1,0
    2a3c:	b15ff0ef          	jal	ra,2550 <USBFSH_CtrlTransfer>
    2a40:	f54fd06f          	j	194 <__riscv_restore_0>

00002a44 <HUB_SetPortFeature>:
    2a44:	f2cfd2ef          	jal	t0,170 <__riscv_save_0>
    2a48:	88c18713          	addi	a4,gp,-1908 # 20000264 <SetPortFeature>
    2a4c:	4314                	lw	a3,0(a4)
    2a4e:	4358                	lw	a4,4(a4)
    2a50:	200017b7          	lui	a5,0x20001
    2a54:	34d7a423          	sw	a3,840(a5) # 20001348 <USBFS_TX_Buf>
    2a58:	34878793          	addi	a5,a5,840
    2a5c:	c3d8                	sw	a4,4(a5)
    2a5e:	00c79123          	sh	a2,2(a5)
    2a62:	00b79223          	sh	a1,4(a5)
    2a66:	4601                	li	a2,0
    2a68:	4581                	li	a1,0
    2a6a:	ae7ff0ef          	jal	ra,2550 <USBFSH_CtrlTransfer>
    2a6e:	f26fd06f          	j	194 <__riscv_restore_0>

00002a72 <HUB_GetClassDevDescr>:
    2a72:	ee4fd2ef          	jal	t0,156 <__riscv_save_4>
    2a76:	87c18793          	addi	a5,gp,-1924 # 20000254 <GetHubDescr>
    2a7a:	4398                	lw	a4,0(a5)
    2a7c:	43dc                	lw	a5,4(a5)
    2a7e:	20001437          	lui	s0,0x20001
    2a82:	34e42423          	sw	a4,840(s0) # 20001348 <USBFS_TX_Buf>
    2a86:	34840413          	addi	s0,s0,840
    2a8a:	89aa                	mv	s3,a0
    2a8c:	84ae                	mv	s1,a1
    2a8e:	8932                	mv	s2,a2
    2a90:	c05c                	sw	a5,4(s0)
    2a92:	abfff0ef          	jal	ra,2550 <USBFSH_CtrlTransfer>
    2a96:	ed01                	bnez	a0,2aae <HUB_GetClassDevDescr+0x3c>
    2a98:	0004c783          	lbu	a5,0(s1)
    2a9c:	864a                	mv	a2,s2
    2a9e:	85a6                	mv	a1,s1
    2aa0:	00f91023          	sh	a5,0(s2)
    2aa4:	854e                	mv	a0,s3
    2aa6:	00f41323          	sh	a5,6(s0)
    2aaa:	aa7ff0ef          	jal	ra,2550 <USBFSH_CtrlTransfer>
    2aae:	edcfd06f          	j	18a <__riscv_restore_4>
    2ab2:	a001                	j	2ab2 <HUB_GetClassDevDescr+0x40>
    2ab4:	a001                	j	2ab4 <HUB_GetClassDevDescr+0x42>

00002ab6 <Ecall_M_Mode_Handler>:
    2ab6:	a001                	j	2ab6 <Ecall_M_Mode_Handler>

00002ab8 <Ecall_U_Mode_Handler>:
    2ab8:	a001                	j	2ab8 <Ecall_U_Mode_Handler>

00002aba <Break_Point_Handler>:
    2aba:	a001                	j	2aba <Break_Point_Handler>

00002abc <SysTick_Handler>:
    2abc:	a001                	j	2abc <SysTick_Handler>

00002abe <SW_Handler>:
    2abe:	a001                	j	2abe <SW_Handler>

00002ac0 <WWDG_IRQHandler>:
    2ac0:	a001                	j	2ac0 <WWDG_IRQHandler>

00002ac2 <PVD_IRQHandler>:
    2ac2:	a001                	j	2ac2 <PVD_IRQHandler>

00002ac4 <TAMPER_IRQHandler>:
    2ac4:	a001                	j	2ac4 <TAMPER_IRQHandler>

00002ac6 <RTC_IRQHandler>:
    2ac6:	a001                	j	2ac6 <RTC_IRQHandler>

00002ac8 <FLASH_IRQHandler>:
    2ac8:	a001                	j	2ac8 <FLASH_IRQHandler>

00002aca <RCC_IRQHandler>:
    2aca:	a001                	j	2aca <RCC_IRQHandler>

00002acc <EXTI0_IRQHandler>:
    2acc:	a001                	j	2acc <EXTI0_IRQHandler>

00002ace <EXTI1_IRQHandler>:
    2ace:	a001                	j	2ace <EXTI1_IRQHandler>

00002ad0 <EXTI2_IRQHandler>:
    2ad0:	a001                	j	2ad0 <EXTI2_IRQHandler>

00002ad2 <EXTI3_IRQHandler>:
    2ad2:	a001                	j	2ad2 <EXTI3_IRQHandler>

00002ad4 <EXTI4_IRQHandler>:
    2ad4:	a001                	j	2ad4 <EXTI4_IRQHandler>

00002ad6 <DMA1_Channel1_IRQHandler>:
    2ad6:	a001                	j	2ad6 <DMA1_Channel1_IRQHandler>

00002ad8 <DMA1_Channel2_IRQHandler>:
    2ad8:	a001                	j	2ad8 <DMA1_Channel2_IRQHandler>

00002ada <DMA1_Channel3_IRQHandler>:
    2ada:	a001                	j	2ada <DMA1_Channel3_IRQHandler>

00002adc <DMA1_Channel4_IRQHandler>:
    2adc:	a001                	j	2adc <DMA1_Channel4_IRQHandler>

00002ade <DMA1_Channel5_IRQHandler>:
    2ade:	a001                	j	2ade <DMA1_Channel5_IRQHandler>

00002ae0 <DMA1_Channel6_IRQHandler>:
    2ae0:	a001                	j	2ae0 <DMA1_Channel6_IRQHandler>

00002ae2 <DMA1_Channel7_IRQHandler>:
    2ae2:	a001                	j	2ae2 <DMA1_Channel7_IRQHandler>

00002ae4 <ADC1_2_IRQHandler>:
    2ae4:	a001                	j	2ae4 <ADC1_2_IRQHandler>

00002ae6 <USB_HP_CAN1_TX_IRQHandler>:
    2ae6:	a001                	j	2ae6 <USB_HP_CAN1_TX_IRQHandler>
    2ae8:	a001                	j	2ae8 <USB_HP_CAN1_TX_IRQHandler+0x2>

00002aea <CAN1_RX1_IRQHandler>:
    2aea:	a001                	j	2aea <CAN1_RX1_IRQHandler>

00002aec <CAN1_SCE_IRQHandler>:
    2aec:	a001                	j	2aec <CAN1_SCE_IRQHandler>

00002aee <EXTI9_5_IRQHandler>:
    2aee:	a001                	j	2aee <EXTI9_5_IRQHandler>

00002af0 <TIM1_BRK_IRQHandler>:
    2af0:	a001                	j	2af0 <TIM1_BRK_IRQHandler>

00002af2 <TIM1_UP_IRQHandler>:
    2af2:	a001                	j	2af2 <TIM1_UP_IRQHandler>

00002af4 <TIM1_TRG_COM_IRQHandler>:
    2af4:	a001                	j	2af4 <TIM1_TRG_COM_IRQHandler>

00002af6 <TIM1_CC_IRQHandler>:
    2af6:	a001                	j	2af6 <TIM1_CC_IRQHandler>

00002af8 <TIM2_IRQHandler>:
    2af8:	a001                	j	2af8 <TIM2_IRQHandler>
    2afa:	a001                	j	2afa <TIM2_IRQHandler+0x2>

00002afc <TIM4_IRQHandler>:
    2afc:	a001                	j	2afc <TIM4_IRQHandler>

00002afe <I2C1_EV_IRQHandler>:
    2afe:	a001                	j	2afe <I2C1_EV_IRQHandler>

00002b00 <I2C1_ER_IRQHandler>:
    2b00:	a001                	j	2b00 <I2C1_ER_IRQHandler>

00002b02 <I2C2_EV_IRQHandler>:
    2b02:	a001                	j	2b02 <I2C2_EV_IRQHandler>

00002b04 <I2C2_ER_IRQHandler>:
    2b04:	a001                	j	2b04 <I2C2_ER_IRQHandler>

00002b06 <SPI1_IRQHandler>:
    2b06:	a001                	j	2b06 <SPI1_IRQHandler>

00002b08 <SPI2_IRQHandler>:
    2b08:	a001                	j	2b08 <SPI2_IRQHandler>

00002b0a <USART1_IRQHandler>:
    2b0a:	a001                	j	2b0a <USART1_IRQHandler>
    2b0c:	a001                	j	2b0c <USART1_IRQHandler+0x2>

00002b0e <USART3_IRQHandler>:
    2b0e:	a001                	j	2b0e <USART3_IRQHandler>

00002b10 <EXTI15_10_IRQHandler>:
    2b10:	a001                	j	2b10 <EXTI15_10_IRQHandler>

00002b12 <RTCAlarm_IRQHandler>:
    2b12:	a001                	j	2b12 <RTCAlarm_IRQHandler>
    2b14:	a001                	j	2b14 <RTCAlarm_IRQHandler+0x2>
    2b16:	a001                	j	2b16 <RTCAlarm_IRQHandler+0x4>

00002b18 <USBHDWakeUp_IRQHandler>:
    2b18:	a001                	j	2b18 <USBHDWakeUp_IRQHandler>

00002b1a <UART4_IRQHandler>:
    2b1a:	a001                	j	2b1a <UART4_IRQHandler>

00002b1c <DMA1_Channel8_IRQHandler>:
    2b1c:	a001                	j	2b1c <DMA1_Channel8_IRQHandler>

00002b1e <handle_reset>:
    2b1e:	1fffe197          	auipc	gp,0x1fffe
    2b22:	eba18193          	addi	gp,gp,-326 # 200009d8 <__global_pointer$>
    2b26:	20002117          	auipc	sp,0x20002
    2b2a:	4da10113          	addi	sp,sp,1242 # 20005000 <_eusrstack>
    2b2e:	00004517          	auipc	a0,0x4
    2b32:	86650513          	addi	a0,a0,-1946 # 6394 <_data_lma>
    2b36:	1fffd597          	auipc	a1,0x1fffd
    2b3a:	4ca58593          	addi	a1,a1,1226 # 20000000 <_data_vma>
    2b3e:	89818613          	addi	a2,gp,-1896 # 20000270 <_edata>
    2b42:	00c5fa63          	bgeu	a1,a2,2b56 <handle_reset+0x38>
    2b46:	00052283          	lw	t0,0(a0)
    2b4a:	0055a023          	sw	t0,0(a1)
    2b4e:	0511                	addi	a0,a0,4
    2b50:	0591                	addi	a1,a1,4
    2b52:	fec5eae3          	bltu	a1,a2,2b46 <handle_reset+0x28>
    2b56:	89818513          	addi	a0,gp,-1896 # 20000270 <_edata>
    2b5a:	1ffff597          	auipc	a1,0x1ffff
    2b5e:	86e58593          	addi	a1,a1,-1938 # 200013c8 <_ebss>
    2b62:	00b57763          	bgeu	a0,a1,2b70 <handle_reset+0x52>
    2b66:	00052023          	sw	zero,0(a0)
    2b6a:	0511                	addi	a0,a0,4
    2b6c:	feb56de3          	bltu	a0,a1,2b66 <handle_reset+0x48>
    2b70:	42fd                	li	t0,31
    2b72:	bc029073          	csrw	0xbc0,t0
    2b76:	428d                	li	t0,3
    2b78:	80429073          	csrw	0x804,t0
    2b7c:	08800293          	li	t0,136
    2b80:	3002a073          	csrs	mstatus,t0
    2b84:	ffffd297          	auipc	t0,0xffffd
    2b88:	4b428293          	addi	t0,t0,1204 # 38 <_einit>
    2b8c:	0032e293          	ori	t0,t0,3
    2b90:	30529073          	csrw	mtvec,t0
    2b94:	832fe0ef          	jal	ra,bc6 <SystemInit>
    2b98:	ffffe297          	auipc	t0,0xffffe
    2b9c:	fa028293          	addi	t0,t0,-96 # b38 <main>
    2ba0:	34129073          	csrw	mepc,t0
    2ba4:	30200073          	mret

00002ba8 <EXTI_Init>:
    2ba8:	4158                	lw	a4,4(a0)
    2baa:	00052803          	lw	a6,0(a0)
    2bae:	454c                	lw	a1,12(a0)
    2bb0:	40010637          	lui	a2,0x40010
    2bb4:	40060793          	addi	a5,a2,1024 # 40010400 <_eusrstack+0x2000b400>
    2bb8:	973e                	add	a4,a4,a5
    2bba:	fff84693          	not	a3,a6
    2bbe:	c5b1                	beqz	a1,2c0a <EXTI_Init+0x62>
    2bc0:	40062583          	lw	a1,1024(a2)
    2bc4:	8df5                	and	a1,a1,a3
    2bc6:	40b62023          	sw	a1,1024(a2)
    2bca:	43d0                	lw	a2,4(a5)
    2bcc:	8ef1                	and	a3,a3,a2
    2bce:	c3d4                	sw	a3,4(a5)
    2bd0:	4314                	lw	a3,0(a4)
    2bd2:	0106e6b3          	or	a3,a3,a6
    2bd6:	c314                	sw	a3,0(a4)
    2bd8:	4118                	lw	a4,0(a0)
    2bda:	4790                	lw	a2,8(a5)
    2bdc:	fff74693          	not	a3,a4
    2be0:	8e75                	and	a2,a2,a3
    2be2:	c790                	sw	a2,8(a5)
    2be4:	47d0                	lw	a2,12(a5)
    2be6:	8ef1                	and	a3,a3,a2
    2be8:	c7d4                	sw	a3,12(a5)
    2bea:	4514                	lw	a3,8(a0)
    2bec:	4641                	li	a2,16
    2bee:	00c69963          	bne	a3,a2,2c00 <EXTI_Init+0x58>
    2bf2:	4794                	lw	a3,8(a5)
    2bf4:	8ed9                	or	a3,a3,a4
    2bf6:	c794                	sw	a3,8(a5)
    2bf8:	47d4                	lw	a3,12(a5)
    2bfa:	8f55                	or	a4,a4,a3
    2bfc:	c7d8                	sw	a4,12(a5)
    2bfe:	8082                	ret
    2c00:	97b6                	add	a5,a5,a3
    2c02:	4394                	lw	a3,0(a5)
    2c04:	8f55                	or	a4,a4,a3
    2c06:	c398                	sw	a4,0(a5)
    2c08:	8082                	ret
    2c0a:	431c                	lw	a5,0(a4)
    2c0c:	8ff5                	and	a5,a5,a3
    2c0e:	c31c                	sw	a5,0(a4)
    2c10:	8082                	ret

00002c12 <EXTI_GetFlagStatus>:
    2c12:	400107b7          	lui	a5,0x40010
    2c16:	40078793          	addi	a5,a5,1024 # 40010400 <_eusrstack+0x2000b400>
    2c1a:	4bdc                	lw	a5,20(a5)
    2c1c:	8d7d                	and	a0,a0,a5
    2c1e:	00a03533          	snez	a0,a0
    2c22:	8082                	ret

00002c24 <EXTI_ClearFlag>:
    2c24:	400107b7          	lui	a5,0x40010
    2c28:	40a7aa23          	sw	a0,1044(a5) # 40010414 <_eusrstack+0x2000b414>
    2c2c:	8082                	ret

00002c2e <EXTI_ClearITPendingBit>:
    2c2e:	400107b7          	lui	a5,0x40010
    2c32:	40a7aa23          	sw	a0,1044(a5) # 40010414 <_eusrstack+0x2000b414>
    2c36:	8082                	ret

00002c38 <GPIO_Init>:
    2c38:	459c                	lw	a5,8(a1)
    2c3a:	0107f713          	andi	a4,a5,16
    2c3e:	00f7f813          	andi	a6,a5,15
    2c42:	c701                	beqz	a4,2c4a <GPIO_Init+0x12>
    2c44:	41d8                	lw	a4,4(a1)
    2c46:	00e86833          	or	a6,a6,a4
    2c4a:	40022737          	lui	a4,0x40022
    2c4e:	5b14                	lw	a3,48(a4)
    2c50:	0f000737          	lui	a4,0xf000
    2c54:	8f75                	and	a4,a4,a3
    2c56:	ef45                	bnez	a4,2d0e <GPIO_Init+0xd6>
    2c58:	4685                	li	a3,1
    2c5a:	8cd18d23          	sb	a3,-1830(gp) # 200002b2 <MCU_Version>
    2c5e:	40011737          	lui	a4,0x40011
    2c62:	00e51763          	bne	a0,a4,2c70 <GPIO_Init+0x38>
    2c66:	0005d703          	lhu	a4,0(a1)
    2c6a:	8335                	srli	a4,a4,0xd
    2c6c:	00e59023          	sh	a4,0(a1)
    2c70:	0005d583          	lhu	a1,0(a1)
    2c74:	0ff5f713          	andi	a4,a1,255
    2c78:	c339                	beqz	a4,2cbe <GPIO_Init+0x86>
    2c7a:	4118                	lw	a4,0(a0)
    2c7c:	4681                	li	a3,0
    2c7e:	4e85                	li	t4,1
    2c80:	4f3d                	li	t5,15
    2c82:	02800f93          	li	t6,40
    2c86:	04800293          	li	t0,72
    2c8a:	4e21                	li	t3,8
    2c8c:	00de9633          	sll	a2,t4,a3
    2c90:	00c5f8b3          	and	a7,a1,a2
    2c94:	03161163          	bne	a2,a7,2cb6 <GPIO_Init+0x7e>
    2c98:	00269893          	slli	a7,a3,0x2
    2c9c:	011f1333          	sll	t1,t5,a7
    2ca0:	fff34313          	not	t1,t1
    2ca4:	00e37733          	and	a4,t1,a4
    2ca8:	011818b3          	sll	a7,a6,a7
    2cac:	00e8e733          	or	a4,a7,a4
    2cb0:	07f79763          	bne	a5,t6,2d1e <GPIO_Init+0xe6>
    2cb4:	c950                	sw	a2,20(a0)
    2cb6:	0685                	addi	a3,a3,1
    2cb8:	fdc69ae3          	bne	a3,t3,2c8c <GPIO_Init+0x54>
    2cbc:	c118                	sw	a4,0(a0)
    2cbe:	0ff00713          	li	a4,255
    2cc2:	04b77563          	bgeu	a4,a1,2d0c <GPIO_Init+0xd4>
    2cc6:	4154                	lw	a3,4(a0)
    2cc8:	4621                	li	a2,8
    2cca:	4e85                	li	t4,1
    2ccc:	4f3d                	li	t5,15
    2cce:	02800f93          	li	t6,40
    2cd2:	04800293          	li	t0,72
    2cd6:	4e41                	li	t3,16
    2cd8:	00ce98b3          	sll	a7,t4,a2
    2cdc:	0115f733          	and	a4,a1,a7
    2ce0:	02e89263          	bne	a7,a4,2d04 <GPIO_Init+0xcc>
    2ce4:	00261713          	slli	a4,a2,0x2
    2ce8:	1701                	addi	a4,a4,-32
    2cea:	00ef1333          	sll	t1,t5,a4
    2cee:	fff34313          	not	t1,t1
    2cf2:	00d376b3          	and	a3,t1,a3
    2cf6:	00e81733          	sll	a4,a6,a4
    2cfa:	8ed9                	or	a3,a3,a4
    2cfc:	03f79563          	bne	a5,t6,2d26 <GPIO_Init+0xee>
    2d00:	01152a23          	sw	a7,20(a0)
    2d04:	0605                	addi	a2,a2,1
    2d06:	fdc619e3          	bne	a2,t3,2cd8 <GPIO_Init+0xa0>
    2d0a:	c154                	sw	a3,4(a0)
    2d0c:	8082                	ret
    2d0e:	40011737          	lui	a4,0x40011
    2d12:	f4e51fe3          	bne	a0,a4,2c70 <GPIO_Init+0x38>
    2d16:	8da1c703          	lbu	a4,-1830(gp) # 200002b2 <MCU_Version>
    2d1a:	db39                	beqz	a4,2c70 <GPIO_Init+0x38>
    2d1c:	b7a9                	j	2c66 <GPIO_Init+0x2e>
    2d1e:	f8579ce3          	bne	a5,t0,2cb6 <GPIO_Init+0x7e>
    2d22:	c910                	sw	a2,16(a0)
    2d24:	bf49                	j	2cb6 <GPIO_Init+0x7e>
    2d26:	fc579fe3          	bne	a5,t0,2d04 <GPIO_Init+0xcc>
    2d2a:	01152823          	sw	a7,16(a0)
    2d2e:	bfd9                	j	2d04 <GPIO_Init+0xcc>

00002d30 <GPIO_WriteBit>:
    2d30:	400117b7          	lui	a5,0x40011
    2d34:	00f51663          	bne	a0,a5,2d40 <GPIO_WriteBit+0x10>
    2d38:	8da1c783          	lbu	a5,-1830(gp) # 200002b2 <MCU_Version>
    2d3c:	c391                	beqz	a5,2d40 <GPIO_WriteBit+0x10>
    2d3e:	81b5                	srli	a1,a1,0xd
    2d40:	c219                	beqz	a2,2d46 <GPIO_WriteBit+0x16>
    2d42:	c90c                	sw	a1,16(a0)
    2d44:	8082                	ret
    2d46:	c94c                	sw	a1,20(a0)
    2d48:	8082                	ret

00002d4a <NVIC_PriorityGroupConfig>:
    2d4a:	8ca1ae23          	sw	a0,-1828(gp) # 200002b4 <NVIC_Priority_Group>
    2d4e:	8082                	ret

00002d50 <NVIC_Init>:
    2d50:	8dc18793          	addi	a5,gp,-1828 # 200002b4 <NVIC_Priority_Group>
    2d54:	4394                	lw	a3,0(a5)
    2d56:	00054703          	lbu	a4,0(a0)
    2d5a:	e689                	bnez	a3,2d64 <NVIC_Init+0x14>
    2d5c:	00254783          	lbu	a5,2(a0)
    2d60:	0792                	slli	a5,a5,0x4
    2d62:	a831                	j	2d7e <NVIC_Init+0x2e>
    2d64:	4394                	lw	a3,0(a5)
    2d66:	4605                	li	a2,1
    2d68:	04c69163          	bne	a3,a2,2daa <NVIC_Init+0x5a>
    2d6c:	00254783          	lbu	a5,2(a0)
    2d70:	00154603          	lbu	a2,1(a0)
    2d74:	0792                	slli	a5,a5,0x4
    2d76:	00d61463          	bne	a2,a3,2d7e <NVIC_Init+0x2e>
    2d7a:	f807e793          	ori	a5,a5,-128
    2d7e:	e000e6b7          	lui	a3,0xe000e
    2d82:	0ff7f793          	andi	a5,a5,255
    2d86:	96ba                	add	a3,a3,a4
    2d88:	40f68023          	sb	a5,1024(a3) # e000e400 <_eusrstack+0xc0009400>
    2d8c:	4685                	li	a3,1
    2d8e:	00575793          	srli	a5,a4,0x5
    2d92:	00e69733          	sll	a4,a3,a4
    2d96:	4154                	lw	a3,4(a0)
    2d98:	c6ad                	beqz	a3,2e02 <NVIC_Init+0xb2>
    2d9a:	04078793          	addi	a5,a5,64 # 40011040 <_eusrstack+0x2000c040>
    2d9e:	078a                	slli	a5,a5,0x2
    2da0:	e000e6b7          	lui	a3,0xe000e
    2da4:	97b6                	add	a5,a5,a3
    2da6:	c398                	sw	a4,0(a5)
    2da8:	8082                	ret
    2daa:	438c                	lw	a1,0(a5)
    2dac:	4689                	li	a3,2
    2dae:	02d59363          	bne	a1,a3,2dd4 <NVIC_Init+0x84>
    2db2:	00154683          	lbu	a3,1(a0)
    2db6:	00254783          	lbu	a5,2(a0)
    2dba:	00d66563          	bltu	a2,a3,2dc4 <NVIC_Init+0x74>
    2dbe:	068a                	slli	a3,a3,0x2
    2dc0:	97b6                	add	a5,a5,a3
    2dc2:	bf79                	j	2d60 <NVIC_Init+0x10>
    2dc4:	03e68693          	addi	a3,a3,62 # e000e03e <_eusrstack+0xc000903e>
    2dc8:	068a                	slli	a3,a3,0x2
    2dca:	97b6                	add	a5,a5,a3
    2dcc:	0ff7f793          	andi	a5,a5,255
    2dd0:	0792                	slli	a5,a5,0x4
    2dd2:	b765                	j	2d7a <NVIC_Init+0x2a>
    2dd4:	4390                	lw	a2,0(a5)
    2dd6:	468d                	li	a3,3
    2dd8:	00d61e63          	bne	a2,a3,2df4 <NVIC_Init+0xa4>
    2ddc:	00154683          	lbu	a3,1(a0)
    2de0:	00254783          	lbu	a5,2(a0)
    2de4:	00d66463          	bltu	a2,a3,2dec <NVIC_Init+0x9c>
    2de8:	0686                	slli	a3,a3,0x1
    2dea:	bfd9                	j	2dc0 <NVIC_Init+0x70>
    2dec:	07c68693          	addi	a3,a3,124
    2df0:	0686                	slli	a3,a3,0x1
    2df2:	bfe1                	j	2dca <NVIC_Init+0x7a>
    2df4:	4394                	lw	a3,0(a5)
    2df6:	4791                	li	a5,4
    2df8:	f8f69ae3          	bne	a3,a5,2d8c <NVIC_Init+0x3c>
    2dfc:	00154783          	lbu	a5,1(a0)
    2e00:	b785                	j	2d60 <NVIC_Init+0x10>
    2e02:	06078793          	addi	a5,a5,96
    2e06:	bf61                	j	2d9e <NVIC_Init+0x4e>

00002e08 <RCC_USBCLKConfig>:
    2e08:	400217b7          	lui	a5,0x40021
    2e0c:	43d8                	lw	a4,4(a5)
    2e0e:	ff4006b7          	lui	a3,0xff400
    2e12:	16fd                	addi	a3,a3,-1
    2e14:	8f75                	and	a4,a4,a3
    2e16:	c3d8                	sw	a4,4(a5)
    2e18:	43d8                	lw	a4,4(a5)
    2e1a:	055a                	slli	a0,a0,0x16
    2e1c:	8d59                	or	a0,a0,a4
    2e1e:	c3c8                	sw	a0,4(a5)
    2e20:	8082                	ret

00002e22 <RCC_GetClocksFreq>:
    2e22:	40021737          	lui	a4,0x40021
    2e26:	435c                	lw	a5,4(a4)
    2e28:	4691                	li	a3,4
    2e2a:	8bb1                	andi	a5,a5,12
    2e2c:	00d78563          	beq	a5,a3,2e36 <RCC_GetClocksFreq+0x14>
    2e30:	46a1                	li	a3,8
    2e32:	06d78663          	beq	a5,a3,2e9e <RCC_GetClocksFreq+0x7c>
    2e36:	007a17b7          	lui	a5,0x7a1
    2e3a:	20078793          	addi	a5,a5,512 # 7a1200 <_data_lma+0x79ae6c>
    2e3e:	c11c                	sw	a5,0(a0)
    2e40:	40021637          	lui	a2,0x40021
    2e44:	425c                	lw	a5,4(a2)
    2e46:	20000737          	lui	a4,0x20000
    2e4a:	00070713          	mv	a4,a4
    2e4e:	8391                	srli	a5,a5,0x4
    2e50:	8bbd                	andi	a5,a5,15
    2e52:	97ba                	add	a5,a5,a4
    2e54:	0007c683          	lbu	a3,0(a5)
    2e58:	411c                	lw	a5,0(a0)
    2e5a:	00d7d7b3          	srl	a5,a5,a3
    2e5e:	c15c                	sw	a5,4(a0)
    2e60:	4254                	lw	a3,4(a2)
    2e62:	82a1                	srli	a3,a3,0x8
    2e64:	8a9d                	andi	a3,a3,7
    2e66:	96ba                	add	a3,a3,a4
    2e68:	0006c683          	lbu	a3,0(a3) # ff400000 <_eusrstack+0xdf3fb000>
    2e6c:	00d7d6b3          	srl	a3,a5,a3
    2e70:	c514                	sw	a3,8(a0)
    2e72:	4254                	lw	a3,4(a2)
    2e74:	82ad                	srli	a3,a3,0xb
    2e76:	8a9d                	andi	a3,a3,7
    2e78:	9736                	add	a4,a4,a3
    2e7a:	00074703          	lbu	a4,0(a4) # 20000000 <_data_vma>
    2e7e:	00e7d7b3          	srl	a5,a5,a4
    2e82:	c55c                	sw	a5,12(a0)
    2e84:	4258                	lw	a4,4(a2)
    2e86:	8339                	srli	a4,a4,0xe
    2e88:	00377693          	andi	a3,a4,3
    2e8c:	80818713          	addi	a4,gp,-2040 # 200001e0 <ADCPrescTable>
    2e90:	9736                	add	a4,a4,a3
    2e92:	00074703          	lbu	a4,0(a4)
    2e96:	02e7d7b3          	divu	a5,a5,a4
    2e9a:	c91c                	sw	a5,16(a0)
    2e9c:	8082                	ret
    2e9e:	435c                	lw	a5,4(a4)
    2ea0:	4358                	lw	a4,4(a4)
    2ea2:	66c1                	lui	a3,0x10
    2ea4:	83c9                	srli	a5,a5,0x12
    2ea6:	8bbd                	andi	a5,a5,15
    2ea8:	8f75                	and	a4,a4,a3
    2eaa:	0789                	addi	a5,a5,2
    2eac:	46c5                	li	a3,17
    2eae:	00d79363          	bne	a5,a3,2eb4 <RCC_GetClocksFreq+0x92>
    2eb2:	47c9                	li	a5,18
    2eb4:	ef01                	bnez	a4,2ecc <RCC_GetClocksFreq+0xaa>
    2eb6:	40024737          	lui	a4,0x40024
    2eba:	80072703          	lw	a4,-2048(a4) # 40023800 <_eusrstack+0x2001e800>
    2ebe:	8b41                	andi	a4,a4,16
    2ec0:	cf09                	beqz	a4,2eda <RCC_GetClocksFreq+0xb8>
    2ec2:	007a1737          	lui	a4,0x7a1
    2ec6:	20070713          	addi	a4,a4,512 # 7a1200 <_data_lma+0x79ae6c>
    2eca:	a821                	j	2ee2 <RCC_GetClocksFreq+0xc0>
    2ecc:	40021737          	lui	a4,0x40021
    2ed0:	4358                	lw	a4,4(a4)
    2ed2:	00e71693          	slli	a3,a4,0xe
    2ed6:	fe06d6e3          	bgez	a3,2ec2 <RCC_GetClocksFreq+0xa0>
    2eda:	003d1737          	lui	a4,0x3d1
    2ede:	90070713          	addi	a4,a4,-1792 # 3d0900 <_data_lma+0x3ca56c>
    2ee2:	02e787b3          	mul	a5,a5,a4
    2ee6:	bfa1                	j	2e3e <RCC_GetClocksFreq+0x1c>

00002ee8 <RCC_AHBPeriphClockCmd>:
    2ee8:	c599                	beqz	a1,2ef6 <RCC_AHBPeriphClockCmd+0xe>
    2eea:	40021737          	lui	a4,0x40021
    2eee:	4b5c                	lw	a5,20(a4)
    2ef0:	8d5d                	or	a0,a0,a5
    2ef2:	cb48                	sw	a0,20(a4)
    2ef4:	8082                	ret
    2ef6:	400217b7          	lui	a5,0x40021
    2efa:	4bd8                	lw	a4,20(a5)
    2efc:	fff54513          	not	a0,a0
    2f00:	8d79                	and	a0,a0,a4
    2f02:	cbc8                	sw	a0,20(a5)
    2f04:	8082                	ret

00002f06 <RCC_APB2PeriphClockCmd>:
    2f06:	c599                	beqz	a1,2f14 <RCC_APB2PeriphClockCmd+0xe>
    2f08:	40021737          	lui	a4,0x40021
    2f0c:	4f1c                	lw	a5,24(a4)
    2f0e:	8d5d                	or	a0,a0,a5
    2f10:	cf08                	sw	a0,24(a4)
    2f12:	8082                	ret
    2f14:	400217b7          	lui	a5,0x40021
    2f18:	4f98                	lw	a4,24(a5)
    2f1a:	fff54513          	not	a0,a0
    2f1e:	8d79                	and	a0,a0,a4
    2f20:	cf88                	sw	a0,24(a5)
    2f22:	8082                	ret

00002f24 <RCC_APB1PeriphClockCmd>:
    2f24:	c599                	beqz	a1,2f32 <RCC_APB1PeriphClockCmd+0xe>
    2f26:	40021737          	lui	a4,0x40021
    2f2a:	4f5c                	lw	a5,28(a4)
    2f2c:	8d5d                	or	a0,a0,a5
    2f2e:	cf48                	sw	a0,28(a4)
    2f30:	8082                	ret
    2f32:	400217b7          	lui	a5,0x40021
    2f36:	4fd8                	lw	a4,28(a5)
    2f38:	fff54513          	not	a0,a0
    2f3c:	8d79                	and	a0,a0,a4
    2f3e:	cfc8                	sw	a0,28(a5)
    2f40:	8082                	ret

00002f42 <TIM_TimeBaseInit>:
    2f42:	00055783          	lhu	a5,0(a0)
    2f46:	40013737          	lui	a4,0x40013
    2f4a:	c0070713          	addi	a4,a4,-1024 # 40012c00 <_eusrstack+0x2000dc00>
    2f4e:	07c2                	slli	a5,a5,0x10
    2f50:	83c1                	srli	a5,a5,0x10
    2f52:	02e50463          	beq	a0,a4,2f7a <TIM_TimeBaseInit+0x38>
    2f56:	40000737          	lui	a4,0x40000
    2f5a:	02e50063          	beq	a0,a4,2f7a <TIM_TimeBaseInit+0x38>
    2f5e:	40070713          	addi	a4,a4,1024 # 40000400 <_eusrstack+0x1fffb400>
    2f62:	00e50c63          	beq	a0,a4,2f7a <TIM_TimeBaseInit+0x38>
    2f66:	40001737          	lui	a4,0x40001
    2f6a:	80070693          	addi	a3,a4,-2048 # 40000800 <_eusrstack+0x1fffb800>
    2f6e:	00d50663          	beq	a0,a3,2f7a <TIM_TimeBaseInit+0x38>
    2f72:	c0070713          	addi	a4,a4,-1024
    2f76:	00e51763          	bne	a0,a4,2f84 <TIM_TimeBaseInit+0x42>
    2f7a:	0025d703          	lhu	a4,2(a1)
    2f7e:	f8f7f793          	andi	a5,a5,-113
    2f82:	8fd9                	or	a5,a5,a4
    2f84:	0065d703          	lhu	a4,6(a1)
    2f88:	cff7f793          	andi	a5,a5,-769
    2f8c:	07c2                	slli	a5,a5,0x10
    2f8e:	83c1                	srli	a5,a5,0x10
    2f90:	8fd9                	or	a5,a5,a4
    2f92:	00f51023          	sh	a5,0(a0)
    2f96:	0045d783          	lhu	a5,4(a1)
    2f9a:	02f51623          	sh	a5,44(a0)
    2f9e:	0005d783          	lhu	a5,0(a1)
    2fa2:	02f51423          	sh	a5,40(a0)
    2fa6:	400137b7          	lui	a5,0x40013
    2faa:	c0078793          	addi	a5,a5,-1024 # 40012c00 <_eusrstack+0x2000dc00>
    2fae:	00f51663          	bne	a0,a5,2fba <TIM_TimeBaseInit+0x78>
    2fb2:	0085c783          	lbu	a5,8(a1)
    2fb6:	02f51823          	sh	a5,48(a0)
    2fba:	4785                	li	a5,1
    2fbc:	00f51a23          	sh	a5,20(a0)
    2fc0:	8082                	ret

00002fc2 <TIM_Cmd>:
    2fc2:	00055783          	lhu	a5,0(a0)
    2fc6:	c591                	beqz	a1,2fd2 <TIM_Cmd+0x10>
    2fc8:	0017e793          	ori	a5,a5,1
    2fcc:	00f51023          	sh	a5,0(a0)
    2fd0:	8082                	ret
    2fd2:	07c2                	slli	a5,a5,0x10
    2fd4:	83c1                	srli	a5,a5,0x10
    2fd6:	9bf9                	andi	a5,a5,-2
    2fd8:	07c2                	slli	a5,a5,0x10
    2fda:	83c1                	srli	a5,a5,0x10
    2fdc:	bfc5                	j	2fcc <TIM_Cmd+0xa>

00002fde <TIM_ITConfig>:
    2fde:	00c55783          	lhu	a5,12(a0)
    2fe2:	c609                	beqz	a2,2fec <TIM_ITConfig+0xe>
    2fe4:	8ddd                	or	a1,a1,a5
    2fe6:	00b51623          	sh	a1,12(a0)
    2fea:	8082                	ret
    2fec:	fff5c593          	not	a1,a1
    2ff0:	8dfd                	and	a1,a1,a5
    2ff2:	bfd5                	j	2fe6 <TIM_ITConfig+0x8>

00002ff4 <TIM_GetITStatus>:
    2ff4:	01055783          	lhu	a5,16(a0)
    2ff8:	00c55503          	lhu	a0,12(a0)
    2ffc:	8fed                	and	a5,a5,a1
    2ffe:	0542                	slli	a0,a0,0x10
    3000:	8141                	srli	a0,a0,0x10
    3002:	c789                	beqz	a5,300c <TIM_GetITStatus+0x18>
    3004:	8d6d                	and	a0,a0,a1
    3006:	00a03533          	snez	a0,a0
    300a:	8082                	ret
    300c:	4501                	li	a0,0
    300e:	8082                	ret

00003010 <TIM_ClearITPendingBit>:
    3010:	fff5c593          	not	a1,a1
    3014:	05c2                	slli	a1,a1,0x10
    3016:	81c1                	srli	a1,a1,0x10
    3018:	00b51823          	sh	a1,16(a0)
    301c:	8082                	ret

0000301e <USART_Init>:
    301e:	952fd2ef          	jal	t0,170 <__riscv_save_0>
    3022:	01055683          	lhu	a3,16(a0)
    3026:	77f5                	lui	a5,0xffffd
    3028:	17fd                	addi	a5,a5,-1
    302a:	8ff5                	and	a5,a5,a3
    302c:	0065d683          	lhu	a3,6(a1)
    3030:	00c5d703          	lhu	a4,12(a1)
    3034:	7179                	addi	sp,sp,-48
    3036:	8fd5                	or	a5,a5,a3
    3038:	00f51823          	sh	a5,16(a0)
    303c:	00c55683          	lhu	a3,12(a0)
    3040:	77fd                	lui	a5,0xfffff
    3042:	9f378793          	addi	a5,a5,-1549 # ffffe9f3 <_eusrstack+0xdfff99f3>
    3046:	8ff5                	and	a5,a5,a3
    3048:	0045d683          	lhu	a3,4(a1)
    304c:	842a                	mv	s0,a0
    304e:	c62e                	sw	a1,12(sp)
    3050:	8fd5                	or	a5,a5,a3
    3052:	0085d683          	lhu	a3,8(a1)
    3056:	8fd5                	or	a5,a5,a3
    3058:	00a5d683          	lhu	a3,10(a1)
    305c:	8fd5                	or	a5,a5,a3
    305e:	00f51623          	sh	a5,12(a0)
    3062:	01455783          	lhu	a5,20(a0)
    3066:	07c2                	slli	a5,a5,0x10
    3068:	83c1                	srli	a5,a5,0x10
    306a:	cff7f793          	andi	a5,a5,-769
    306e:	8fd9                	or	a5,a5,a4
    3070:	00f51a23          	sh	a5,20(a0)
    3074:	0868                	addi	a0,sp,28
    3076:	dadff0ef          	jal	ra,2e22 <RCC_GetClocksFreq>
    307a:	400147b7          	lui	a5,0x40014
    307e:	80078793          	addi	a5,a5,-2048 # 40013800 <_eusrstack+0x2000e800>
    3082:	45b2                	lw	a1,12(sp)
    3084:	04f41d63          	bne	s0,a5,30de <USART_Init+0xc0>
    3088:	57a2                	lw	a5,40(sp)
    308a:	00c45683          	lhu	a3,12(s0)
    308e:	4765                	li	a4,25
    3090:	02e787b3          	mul	a5,a5,a4
    3094:	06c2                	slli	a3,a3,0x10
    3096:	86c1                	srai	a3,a3,0x10
    3098:	4198                	lw	a4,0(a1)
    309a:	0406d463          	bgez	a3,30e2 <USART_Init+0xc4>
    309e:	0706                	slli	a4,a4,0x1
    30a0:	00c45603          	lhu	a2,12(s0)
    30a4:	0642                	slli	a2,a2,0x10
    30a6:	02e7d7b3          	divu	a5,a5,a4
    30aa:	06400713          	li	a4,100
    30ae:	8641                	srai	a2,a2,0x10
    30b0:	02e7d6b3          	divu	a3,a5,a4
    30b4:	02e7f7b3          	remu	a5,a5,a4
    30b8:	0692                	slli	a3,a3,0x4
    30ba:	02065663          	bgez	a2,30e6 <USART_Init+0xc8>
    30be:	078e                	slli	a5,a5,0x3
    30c0:	03278793          	addi	a5,a5,50
    30c4:	02e7d7b3          	divu	a5,a5,a4
    30c8:	0077f713          	andi	a4,a5,7
    30cc:	00d767b3          	or	a5,a4,a3
    30d0:	07c2                	slli	a5,a5,0x10
    30d2:	83c1                	srli	a5,a5,0x10
    30d4:	00f41423          	sh	a5,8(s0)
    30d8:	6145                	addi	sp,sp,48
    30da:	8bafd06f          	j	194 <__riscv_restore_0>
    30de:	5792                	lw	a5,36(sp)
    30e0:	b76d                	j	308a <USART_Init+0x6c>
    30e2:	070a                	slli	a4,a4,0x2
    30e4:	bf75                	j	30a0 <USART_Init+0x82>
    30e6:	0792                	slli	a5,a5,0x4
    30e8:	03278793          	addi	a5,a5,50
    30ec:	02e7d7b3          	divu	a5,a5,a4
    30f0:	8bbd                	andi	a5,a5,15
    30f2:	8fd5                	or	a5,a5,a3
    30f4:	bff1                	j	30d0 <USART_Init+0xb2>

000030f6 <USART_Cmd>:
    30f6:	c981                	beqz	a1,3106 <USART_Cmd+0x10>
    30f8:	00c55783          	lhu	a5,12(a0)
    30fc:	6709                	lui	a4,0x2
    30fe:	8fd9                	or	a5,a5,a4
    3100:	00f51623          	sh	a5,12(a0)
    3104:	8082                	ret
    3106:	00c55703          	lhu	a4,12(a0)
    310a:	77f9                	lui	a5,0xffffe
    310c:	17fd                	addi	a5,a5,-1
    310e:	8ff9                	and	a5,a5,a4
    3110:	bfc5                	j	3100 <USART_Cmd+0xa>

00003112 <USART_SendData>:
    3112:	1ff5f593          	andi	a1,a1,511
    3116:	00b51223          	sh	a1,4(a0)
    311a:	8082                	ret

0000311c <USART_ReceiveData>:
    311c:	00455503          	lhu	a0,4(a0)
    3120:	1ff57513          	andi	a0,a0,511
    3124:	8082                	ret

00003126 <USART_GetFlagStatus>:
    3126:	00055503          	lhu	a0,0(a0)
    312a:	8d6d                	and	a0,a0,a1
    312c:	00a03533          	snez	a0,a0
    3130:	8082                	ret

00003132 <USART_GetITStatus>:
    3132:	0ff5f713          	andi	a4,a1,255
    3136:	4685                	li	a3,1
    3138:	8315                	srli	a4,a4,0x5
    313a:	00b697b3          	sll	a5,a3,a1
    313e:	02d71363          	bne	a4,a3,3164 <USART_GetITStatus+0x32>
    3142:	00c55703          	lhu	a4,12(a0)
    3146:	8ff9                	and	a5,a5,a4
    3148:	00055703          	lhu	a4,0(a0)
    314c:	4501                	li	a0,0
    314e:	0742                	slli	a4,a4,0x10
    3150:	8341                	srli	a4,a4,0x10
    3152:	cb81                	beqz	a5,3162 <USART_GetITStatus+0x30>
    3154:	4505                	li	a0,1
    3156:	81a1                	srli	a1,a1,0x8
    3158:	00b515b3          	sll	a1,a0,a1
    315c:	8f6d                	and	a4,a4,a1
    315e:	00e03533          	snez	a0,a4
    3162:	8082                	ret
    3164:	4689                	li	a3,2
    3166:	00d71563          	bne	a4,a3,3170 <USART_GetITStatus+0x3e>
    316a:	01055703          	lhu	a4,16(a0)
    316e:	bfe1                	j	3146 <USART_GetITStatus+0x14>
    3170:	01455703          	lhu	a4,20(a0)
    3174:	bfc9                	j	3146 <USART_GetITStatus+0x14>

00003176 <Standard_GetConfiguration>:
    3176:	ffbfc2ef          	jal	t0,170 <__riscv_save_0>
    317a:	e901                	bnez	a0,318a <Standard_GetConfiguration+0x14>
    317c:	8e81a783          	lw	a5,-1816(gp) # 200002c0 <pInformation>
    3180:	4705                	li	a4,1
    3182:	00e79823          	sh	a4,16(a5) # ffffe010 <_eusrstack+0xdfff9010>
    3186:	80efd06f          	j	194 <__riscv_restore_0>
    318a:	8f01a783          	lw	a5,-1808(gp) # 200002c8 <pUser_Standard_Requests>
    318e:	439c                	lw	a5,0(a5)
    3190:	9782                	jalr	a5
    3192:	8e81a503          	lw	a0,-1816(gp) # 200002c0 <pInformation>
    3196:	0529                	addi	a0,a0,10
    3198:	b7fd                	j	3186 <Standard_GetConfiguration+0x10>

0000319a <Standard_GetInterface>:
    319a:	fd7fc2ef          	jal	t0,170 <__riscv_save_0>
    319e:	e901                	bnez	a0,31ae <Standard_GetInterface+0x14>
    31a0:	8e81a783          	lw	a5,-1816(gp) # 200002c0 <pInformation>
    31a4:	4705                	li	a4,1
    31a6:	00e79823          	sh	a4,16(a5)
    31aa:	febfc06f          	j	194 <__riscv_restore_0>
    31ae:	8f01a783          	lw	a5,-1808(gp) # 200002c8 <pUser_Standard_Requests>
    31b2:	479c                	lw	a5,8(a5)
    31b4:	9782                	jalr	a5
    31b6:	8e81a503          	lw	a0,-1816(gp) # 200002c0 <pInformation>
    31ba:	0531                	addi	a0,a0,12
    31bc:	b7fd                	j	31aa <Standard_GetInterface+0x10>

000031be <Standard_GetStatus>:
    31be:	8e81a703          	lw	a4,-1816(gp) # 200002c0 <pInformation>
    31c2:	e509                	bnez	a0,31cc <Standard_GetStatus+0xe>
    31c4:	4789                	li	a5,2
    31c6:	00f71823          	sh	a5,16(a4) # 2010 <USBH_MainDeal+0x43a>
    31ca:	8082                	ret
    31cc:	fa5fc2ef          	jal	t0,170 <__riscv_save_0>
    31d0:	8e019223          	sh	zero,-1820(gp) # 200002bc <StatusInfo>
    31d4:	00074783          	lbu	a5,0(a4)
    31d8:	8e418413          	addi	s0,gp,-1820 # 200002bc <StatusInfo>
    31dc:	07f7f793          	andi	a5,a5,127
    31e0:	eb9d                	bnez	a5,3216 <Standard_GetStatus+0x58>
    31e2:	00974703          	lbu	a4,9(a4)
    31e6:	02077793          	andi	a5,a4,32
    31ea:	c781                	beqz	a5,31f2 <Standard_GetStatus+0x34>
    31ec:	4789                	li	a5,2
    31ee:	00f40023          	sb	a5,0(s0)
    31f2:	04077713          	andi	a4,a4,64
    31f6:	00044783          	lbu	a5,0(s0)
    31fa:	cf01                	beqz	a4,3212 <Standard_GetStatus+0x54>
    31fc:	0017e793          	ori	a5,a5,1
    3200:	00f40023          	sb	a5,0(s0)
    3204:	8f01a783          	lw	a5,-1808(gp) # 200002c8 <pUser_Standard_Requests>
    3208:	4b9c                	lw	a5,16(a5)
    320a:	9782                	jalr	a5
    320c:	8522                	mv	a0,s0
    320e:	f87fc06f          	j	194 <__riscv_restore_0>
    3212:	9bf9                	andi	a5,a5,-2
    3214:	b7f5                	j	3200 <Standard_GetStatus+0x42>
    3216:	4685                	li	a3,1
    3218:	8e418513          	addi	a0,gp,-1820 # 200002bc <StatusInfo>
    321c:	fed789e3          	beq	a5,a3,320e <Standard_GetStatus+0x50>
    3220:	4689                	li	a3,2
    3222:	4501                	li	a0,0
    3224:	fed795e3          	bne	a5,a3,320e <Standard_GetStatus+0x50>
    3228:	00574703          	lbu	a4,5(a4)
    322c:	400066b7          	lui	a3,0x40006
    3230:	c0068693          	addi	a3,a3,-1024 # 40005c00 <_eusrstack+0x20000c00>
    3234:	00f77793          	andi	a5,a4,15
    3238:	078a                	slli	a5,a5,0x2
    323a:	97b6                	add	a5,a5,a3
    323c:	0762                	slli	a4,a4,0x18
    323e:	439c                	lw	a5,0(a5)
    3240:	8761                	srai	a4,a4,0x18
    3242:	00075963          	bgez	a4,3254 <Standard_GetStatus+0x96>
    3246:	0307f793          	andi	a5,a5,48
    324a:	4741                	li	a4,16
    324c:	fae79ce3          	bne	a5,a4,3204 <Standard_GetStatus+0x46>
    3250:	4785                	li	a5,1
    3252:	b77d                	j	3200 <Standard_GetStatus+0x42>
    3254:	670d                	lui	a4,0x3
    3256:	8ff9                	and	a5,a5,a4
    3258:	6705                	lui	a4,0x1
    325a:	bfcd                	j	324c <Standard_GetStatus+0x8e>

0000325c <DataStageIn>:
    325c:	efbfc2ef          	jal	t0,156 <__riscv_save_4>
    3260:	8e81a483          	lw	s1,-1816(gp) # 200002c0 <pInformation>
    3264:	8a3e                	mv	s4,a5
    3266:	0104d403          	lhu	s0,16(s1)
    326a:	e839                	bnez	s0,32c0 <DataStageIn+0x64>
    326c:	0084c703          	lbu	a4,8(s1)
    3270:	4791                	li	a5,4
    3272:	04f71763          	bne	a4,a5,32c0 <DataStageIn+0x64>
    3276:	8e018713          	addi	a4,gp,-1824 # 200002b8 <Data_Mul_MaxPacketSize>
    327a:	4314                	lw	a3,0(a4)
    327c:	4785                	li	a5,1
    327e:	02f69c63          	bne	a3,a5,32b6 <DataStageIn+0x5a>
    3282:	400067b7          	lui	a5,0x40006
    3286:	c507a783          	lw	a5,-944(a5) # 40005c50 <_eusrstack+0x20000c50>
    328a:	200036b7          	lui	a3,0x20003
    328e:	0689                	addi	a3,a3,2
    3290:	07c2                	slli	a5,a5,0x10
    3292:	83c1                	srli	a5,a5,0x10
    3294:	97b6                	add	a5,a5,a3
    3296:	0786                	slli	a5,a5,0x1
    3298:	0007a023          	sw	zero,0(a5)
    329c:	03000793          	li	a5,48
    32a0:	8ef19c23          	sh	a5,-1800(gp) # 200002d0 <SaveTState>
    32a4:	00072023          	sw	zero,0(a4) # 1000 <KM_AnalyzeConfigDesc>
    32a8:	4911                	li	s2,4
    32aa:	8e81a783          	lw	a5,-1816(gp) # 200002c0 <pInformation>
    32ae:	01278423          	sb	s2,8(a5)
    32b2:	ed9fc06f          	j	18a <__riscv_restore_4>
    32b6:	47c1                	li	a5,16
    32b8:	8ef19c23          	sh	a5,-1800(gp) # 200002d0 <SaveTState>
    32bc:	491d                	li	s2,7
    32be:	b7f5                	j	32aa <DataStageIn+0x4e>
    32c0:	0144d783          	lhu	a5,20(s1)
    32c4:	4911                	li	s2,4
    32c6:	0087f363          	bgeu	a5,s0,32cc <DataStageIn+0x70>
    32ca:	4909                	li	s2,2
    32cc:	0087f363          	bgeu	a5,s0,32d2 <DataStageIn+0x76>
    32d0:	843e                	mv	s0,a5
    32d2:	4c9c                	lw	a5,24(s1)
    32d4:	0442                	slli	s0,s0,0x10
    32d6:	8041                	srli	s0,s0,0x10
    32d8:	8522                	mv	a0,s0
    32da:	9782                	jalr	a5
    32dc:	8aaa                	mv	s5,a0
    32de:	4501                	li	a0,0
    32e0:	60f000ef          	jal	ra,40ee <GetEPTxAddr>
    32e4:	8622                	mv	a2,s0
    32e6:	85aa                	mv	a1,a0
    32e8:	8556                	mv	a0,s5
    32ea:	42d000ef          	jal	ra,3f16 <UserToPMABufferCopy>
    32ee:	85a2                	mv	a1,s0
    32f0:	4501                	li	a0,0
    32f2:	63b000ef          	jal	ra,412c <SetEPTxCount>
    32f6:	0104d783          	lhu	a5,16(s1)
    32fa:	670d                	lui	a4,0x3
    32fc:	8f81                	sub	a5,a5,s0
    32fe:	00f49823          	sh	a5,16(s1)
    3302:	0124d783          	lhu	a5,18(s1)
    3306:	943e                	add	s0,s0,a5
    3308:	03000793          	li	a5,48
    330c:	8ef19c23          	sh	a5,-1800(gp) # 200002d0 <SaveTState>
    3310:	00849923          	sh	s0,18(s1)
    3314:	8ee19b23          	sh	a4,-1802(gp) # 200002ce <SaveRState>
    3318:	bf49                	j	32aa <DataStageIn+0x4e>

0000331a <Standard_SetConfiguration>:
    331a:	8e81a783          	lw	a5,-1816(gp) # 200002c0 <pInformation>
    331e:	8191c683          	lbu	a3,-2023(gp) # 200001f1 <Device_Table+0x1>
    3322:	0037c703          	lbu	a4,3(a5)
    3326:	4509                	li	a0,2
    3328:	02e6e363          	bltu	a3,a4,334e <Standard_SetConfiguration+0x34>
    332c:	0027c683          	lbu	a3,2(a5)
    3330:	ee99                	bnez	a3,334e <Standard_SetConfiguration+0x34>
    3332:	0047d683          	lhu	a3,4(a5)
    3336:	ee81                	bnez	a3,334e <Standard_SetConfiguration+0x34>
    3338:	e39fc2ef          	jal	t0,170 <__riscv_save_0>
    333c:	00e78523          	sb	a4,10(a5)
    3340:	8f01a783          	lw	a5,-1808(gp) # 200002c8 <pUser_Standard_Requests>
    3344:	43dc                	lw	a5,4(a5)
    3346:	9782                	jalr	a5
    3348:	4501                	li	a0,0
    334a:	e4bfc06f          	j	194 <__riscv_restore_0>
    334e:	8082                	ret

00003350 <Standard_SetInterface>:
    3350:	e21fc2ef          	jal	t0,170 <__riscv_save_0>
    3354:	8e81a783          	lw	a5,-1816(gp) # 200002c0 <pInformation>
    3358:	8ec1a703          	lw	a4,-1812(gp) # 200002c4 <pProperty>
    335c:	1141                	addi	sp,sp,-16
    335e:	0037c583          	lbu	a1,3(a5)
    3362:	4f18                	lw	a4,24(a4)
    3364:	0057c503          	lbu	a0,5(a5)
    3368:	9702                	jalr	a4
    336a:	8e81a783          	lw	a5,-1816(gp) # 200002c0 <pInformation>
    336e:	00a7c703          	lbu	a4,10(a5)
    3372:	cb1d                	beqz	a4,33a8 <Standard_SetInterface+0x58>
    3374:	c62a                	sw	a0,12(sp)
    3376:	e90d                	bnez	a0,33a8 <Standard_SetInterface+0x58>
    3378:	0047c703          	lbu	a4,4(a5)
    337c:	e715                	bnez	a4,33a8 <Standard_SetInterface+0x58>
    337e:	0027c783          	lbu	a5,2(a5)
    3382:	e39d                	bnez	a5,33a8 <Standard_SetInterface+0x58>
    3384:	8f01a783          	lw	a5,-1808(gp) # 200002c8 <pUser_Standard_Requests>
    3388:	47dc                	lw	a5,12(a5)
    338a:	9782                	jalr	a5
    338c:	8e81a783          	lw	a5,-1816(gp) # 200002c0 <pInformation>
    3390:	4532                	lw	a0,12(sp)
    3392:	0057c703          	lbu	a4,5(a5)
    3396:	00e785a3          	sb	a4,11(a5)
    339a:	0037c703          	lbu	a4,3(a5)
    339e:	00e78623          	sb	a4,12(a5)
    33a2:	0141                	addi	sp,sp,16
    33a4:	df1fc06f          	j	194 <__riscv_restore_0>
    33a8:	4509                	li	a0,2
    33aa:	bfe5                	j	33a2 <Standard_SetInterface+0x52>

000033ac <Standard_ClearFeature>:
    33ac:	8e81a783          	lw	a5,-1816(gp) # 200002c0 <pInformation>
    33b0:	0007c683          	lbu	a3,0(a5)
    33b4:	07f6f693          	andi	a3,a3,127
    33b8:	ea91                	bnez	a3,33cc <Standard_ClearFeature+0x20>
    33ba:	0097c703          	lbu	a4,9(a5)
    33be:	fdf77713          	andi	a4,a4,-33
    33c2:	00e784a3          	sb	a4,9(a5)
    33c6:	4701                	li	a4,0
    33c8:	853a                	mv	a0,a4
    33ca:	8082                	ret
    33cc:	4609                	li	a2,2
    33ce:	4709                	li	a4,2
    33d0:	fec69ce3          	bne	a3,a2,33c8 <Standard_ClearFeature+0x1c>
    33d4:	0027d683          	lhu	a3,2(a5)
    33d8:	fae5                	bnez	a3,33c8 <Standard_ClearFeature+0x1c>
    33da:	0047c683          	lbu	a3,4(a5)
    33de:	f6ed                	bnez	a3,33c8 <Standard_ClearFeature+0x1c>
    33e0:	d91fc2ef          	jal	t0,170 <__riscv_save_0>
    33e4:	0057c603          	lbu	a2,5(a5)
    33e8:	40006737          	lui	a4,0x40006
    33ec:	c0070713          	addi	a4,a4,-1024 # 40005c00 <_eusrstack+0x20000c00>
    33f0:	f7f67513          	andi	a0,a2,-129
    33f4:	00251413          	slli	s0,a0,0x2
    33f8:	943a                	add	s0,s0,a4
    33fa:	0662                	slli	a2,a2,0x18
    33fc:	4014                	lw	a3,0(s0)
    33fe:	8661                	srai	a2,a2,0x18
    3400:	04065763          	bgez	a2,344e <Standard_ClearFeature+0xa2>
    3404:	0306f693          	andi	a3,a3,48
    3408:	8181c583          	lbu	a1,-2024(gp) # 200001f0 <Device_Table>
    340c:	4709                	li	a4,2
    340e:	02b57d63          	bgeu	a0,a1,3448 <Standard_ClearFeature+0x9c>
    3412:	ca9d                	beqz	a3,3448 <Standard_ClearFeature+0x9c>
    3414:	00a7c783          	lbu	a5,10(a5)
    3418:	cb85                	beqz	a5,3448 <Standard_ClearFeature+0x9c>
    341a:	401c                	lw	a5,0(s0)
    341c:	02065c63          	bgez	a2,3454 <Standard_ClearFeature+0xa8>
    3420:	0307f793          	andi	a5,a5,48
    3424:	4741                	li	a4,16
    3426:	00e79c63          	bne	a5,a4,343e <Standard_ClearFeature+0x92>
    342a:	0ff57413          	andi	s0,a0,255
    342e:	8522                	mv	a0,s0
    3430:	44d000ef          	jal	ra,407c <ClearDTOG_TX>
    3434:	03000593          	li	a1,48
    3438:	8522                	mv	a0,s0
    343a:	353000ef          	jal	ra,3f8c <SetEPTxStatus>
    343e:	8f01a783          	lw	a5,-1808(gp) # 200002c8 <pUser_Standard_Requests>
    3442:	4bdc                	lw	a5,20(a5)
    3444:	9782                	jalr	a5
    3446:	4701                	li	a4,0
    3448:	853a                	mv	a0,a4
    344a:	d4bfc06f          	j	194 <__riscv_restore_0>
    344e:	670d                	lui	a4,0x3
    3450:	8ef9                	and	a3,a3,a4
    3452:	bf5d                	j	3408 <Standard_ClearFeature+0x5c>
    3454:	64c1                	lui	s1,0x10
    3456:	14fd                	addi	s1,s1,-1
    3458:	670d                	lui	a4,0x3
    345a:	8fe5                	and	a5,a5,s1
    345c:	8ff9                	and	a5,a5,a4
    345e:	6705                	lui	a4,0x1
    3460:	fce79fe3          	bne	a5,a4,343e <Standard_ClearFeature+0x92>
    3464:	ed1d                	bnez	a0,34a2 <Standard_ClearFeature+0xf6>
    3466:	200007b7          	lui	a5,0x20000
    346a:	14c7c583          	lbu	a1,332(a5) # 2000014c <Device_Property+0x2c>
    346e:	4dd000ef          	jal	ra,414a <SetEPRxCount>
    3472:	401c                	lw	a5,0(s0)
    3474:	7771                	lui	a4,0xffffc
    3476:	f8f70713          	addi	a4,a4,-113 # ffffbf8f <_eusrstack+0xdfff6f8f>
    347a:	8ff9                	and	a5,a5,a4
    347c:	07c2                	slli	a5,a5,0x10
    347e:	670d                	lui	a4,0x3
    3480:	83c1                	srli	a5,a5,0x10
    3482:	8fb9                	xor	a5,a5,a4
    3484:	7761                	lui	a4,0xffff8
    3486:	08070713          	addi	a4,a4,128 # ffff8080 <_eusrstack+0xdfff3080>
    348a:	8fd9                	or	a5,a5,a4
    348c:	07c2                	slli	a5,a5,0x10
    348e:	83c1                	srli	a5,a5,0x10
    3490:	c01c                	sw	a5,0(s0)
    3492:	668d                	lui	a3,0x3
    3494:	4018                	lw	a4,0(s0)
    3496:	8f65                	and	a4,a4,s1
    3498:	8f75                	and	a4,a4,a3
    349a:	fad702e3          	beq	a4,a3,343e <Standard_ClearFeature+0x92>
    349e:	c01c                	sw	a5,0(s0)
    34a0:	bfd5                	j	3494 <Standard_ClearFeature+0xe8>
    34a2:	3a7000ef          	jal	ra,4048 <ClearDTOG_RX>
    34a6:	401c                	lw	a5,0(s0)
    34a8:	7771                	lui	a4,0xffffc
    34aa:	f8f70713          	addi	a4,a4,-113 # ffffbf8f <_eusrstack+0xdfff6f8f>
    34ae:	8ff9                	and	a5,a5,a4
    34b0:	07c2                	slli	a5,a5,0x10
    34b2:	670d                	lui	a4,0x3
    34b4:	83c1                	srli	a5,a5,0x10
    34b6:	8fb9                	xor	a5,a5,a4
    34b8:	7761                	lui	a4,0xffff8
    34ba:	08070713          	addi	a4,a4,128 # ffff8080 <_eusrstack+0xdfff3080>
    34be:	8fd9                	or	a5,a5,a4
    34c0:	07c2                	slli	a5,a5,0x10
    34c2:	83c1                	srli	a5,a5,0x10
    34c4:	c01c                	sw	a5,0(s0)
    34c6:	668d                	lui	a3,0x3
    34c8:	4018                	lw	a4,0(s0)
    34ca:	8f65                	and	a4,a4,s1
    34cc:	8f75                	and	a4,a4,a3
    34ce:	f6d708e3          	beq	a4,a3,343e <Standard_ClearFeature+0x92>
    34d2:	c01c                	sw	a5,0(s0)
    34d4:	bfd5                	j	34c8 <Standard_ClearFeature+0x11c>

000034d6 <Standard_SetEndPointFeature>:
    34d6:	8e81a603          	lw	a2,-1816(gp) # 200002c0 <pInformation>
    34da:	400067b7          	lui	a5,0x40006
    34de:	c0078793          	addi	a5,a5,-1024 # 40005c00 <_eusrstack+0x20000c00>
    34e2:	00564683          	lbu	a3,5(a2) # 40021005 <_eusrstack+0x2001c005>
    34e6:	f7f6f593          	andi	a1,a3,-129
    34ea:	00259713          	slli	a4,a1,0x2
    34ee:	97ba                	add	a5,a5,a4
    34f0:	06e2                	slli	a3,a3,0x18
    34f2:	4398                	lw	a4,0(a5)
    34f4:	86e1                	srai	a3,a3,0x18
    34f6:	0606d163          	bgez	a3,3558 <Standard_SetEndPointFeature+0x82>
    34fa:	03077713          	andi	a4,a4,48
    34fe:	8181c803          	lbu	a6,-2024(gp) # 200001f0 <Device_Table>
    3502:	4509                	li	a0,2
    3504:	0905f963          	bgeu	a1,a6,3596 <Standard_SetEndPointFeature+0xc0>
    3508:	00265583          	lhu	a1,2(a2)
    350c:	e5c9                	bnez	a1,3596 <Standard_SetEndPointFeature+0xc0>
    350e:	c741                	beqz	a4,3596 <Standard_SetEndPointFeature+0xc0>
    3510:	00a64703          	lbu	a4,10(a2)
    3514:	c349                	beqz	a4,3596 <Standard_SetEndPointFeature+0xc0>
    3516:	c5bfc2ef          	jal	t0,170 <__riscv_save_0>
    351a:	4398                	lw	a4,0(a5)
    351c:	0406d363          	bgez	a3,3562 <Standard_SetEndPointFeature+0x8c>
    3520:	76e5                	lui	a3,0xffff9
    3522:	fbf68693          	addi	a3,a3,-65 # ffff8fbf <_eusrstack+0xdfff3fbf>
    3526:	8f75                	and	a4,a4,a3
    3528:	0742                	slli	a4,a4,0x10
    352a:	8341                	srli	a4,a4,0x10
    352c:	76e1                	lui	a3,0xffff8
    352e:	01074713          	xori	a4,a4,16
    3532:	08068693          	addi	a3,a3,128 # ffff8080 <_eusrstack+0xdfff3080>
    3536:	8f55                	or	a4,a4,a3
    3538:	0742                	slli	a4,a4,0x10
    353a:	8341                	srli	a4,a4,0x10
    353c:	c398                	sw	a4,0(a5)
    353e:	4641                	li	a2,16
    3540:	4394                	lw	a3,0(a5)
    3542:	0306f693          	andi	a3,a3,48
    3546:	00c69c63          	bne	a3,a2,355e <Standard_SetEndPointFeature+0x88>
    354a:	8f01a783          	lw	a5,-1808(gp) # 200002c8 <pUser_Standard_Requests>
    354e:	4f9c                	lw	a5,24(a5)
    3550:	9782                	jalr	a5
    3552:	4501                	li	a0,0
    3554:	c41fc06f          	j	194 <__riscv_restore_0>
    3558:	650d                	lui	a0,0x3
    355a:	8f69                	and	a4,a4,a0
    355c:	b74d                	j	34fe <Standard_SetEndPointFeature+0x28>
    355e:	c398                	sw	a4,0(a5)
    3560:	b7c5                	j	3540 <Standard_SetEndPointFeature+0x6a>
    3562:	76f1                	lui	a3,0xffffc
    3564:	f8f68693          	addi	a3,a3,-113 # ffffbf8f <_eusrstack+0xdfff6f8f>
    3568:	8f75                	and	a4,a4,a3
    356a:	0742                	slli	a4,a4,0x10
    356c:	6685                	lui	a3,0x1
    356e:	8341                	srli	a4,a4,0x10
    3570:	8f35                	xor	a4,a4,a3
    3572:	76e1                	lui	a3,0xffff8
    3574:	08068693          	addi	a3,a3,128 # ffff8080 <_eusrstack+0xdfff3080>
    3578:	8f55                	or	a4,a4,a3
    357a:	0742                	slli	a4,a4,0x10
    357c:	8341                	srli	a4,a4,0x10
    357e:	6641                	lui	a2,0x10
    3580:	c398                	sw	a4,0(a5)
    3582:	167d                	addi	a2,a2,-1
    3584:	650d                	lui	a0,0x3
    3586:	6585                	lui	a1,0x1
    3588:	4394                	lw	a3,0(a5)
    358a:	8ef1                	and	a3,a3,a2
    358c:	8ee9                	and	a3,a3,a0
    358e:	fab68ee3          	beq	a3,a1,354a <Standard_SetEndPointFeature+0x74>
    3592:	c398                	sw	a4,0(a5)
    3594:	bfd5                	j	3588 <Standard_SetEndPointFeature+0xb2>
    3596:	8082                	ret

00003598 <Standard_SetDeviceFeature>:
    3598:	bd9fc2ef          	jal	t0,170 <__riscv_save_0>
    359c:	8e81a703          	lw	a4,-1816(gp) # 200002c0 <pInformation>
    35a0:	00974783          	lbu	a5,9(a4)
    35a4:	0207e793          	ori	a5,a5,32
    35a8:	00f704a3          	sb	a5,9(a4)
    35ac:	8f01a783          	lw	a5,-1808(gp) # 200002c8 <pUser_Standard_Requests>
    35b0:	4fdc                	lw	a5,28(a5)
    35b2:	9782                	jalr	a5
    35b4:	4501                	li	a0,0
    35b6:	bdffc06f          	j	194 <__riscv_restore_0>

000035ba <Standard_GetDescriptorData>:
    35ba:	8e81a703          	lw	a4,-1816(gp) # 200002c0 <pInformation>
    35be:	01275783          	lhu	a5,18(a4)
    35c2:	e901                	bnez	a0,35d2 <Standard_GetDescriptorData+0x18>
    35c4:	0045d503          	lhu	a0,4(a1) # 1004 <KM_AnalyzeConfigDesc+0x4>
    35c8:	8d1d                	sub	a0,a0,a5
    35ca:	00a71823          	sh	a0,16(a4)
    35ce:	4501                	li	a0,0
    35d0:	8082                	ret
    35d2:	4188                	lw	a0,0(a1)
    35d4:	953e                	add	a0,a0,a5
    35d6:	8082                	ret

000035d8 <Post0_Process>:
    35d8:	b99fc2ef          	jal	t0,170 <__riscv_save_0>
    35dc:	200007b7          	lui	a5,0x20000
    35e0:	14c7c583          	lbu	a1,332(a5) # 2000014c <Device_Property+0x2c>
    35e4:	4501                	li	a0,0
    35e6:	365000ef          	jal	ra,414a <SetEPRxCount>
    35ea:	8e81a783          	lw	a5,-1816(gp) # 200002c0 <pInformation>
    35ee:	0087c503          	lbu	a0,8(a5)
    35f2:	47a1                	li	a5,8
    35f4:	00f51863          	bne	a0,a5,3604 <Post0_Process+0x2c>
    35f8:	6705                	lui	a4,0x1
    35fa:	8ee19b23          	sh	a4,-1802(gp) # 200002ce <SaveRState>
    35fe:	4741                	li	a4,16
    3600:	8ee19c23          	sh	a4,-1800(gp) # 200002d0 <SaveTState>
    3604:	155d                	addi	a0,a0,-9
    3606:	00153513          	seqz	a0,a0
    360a:	b8bfc06f          	j	194 <__riscv_restore_0>

0000360e <Setup0_Process>:
    360e:	b63fc2ef          	jal	t0,170 <__riscv_save_0>
    3612:	8e81a903          	lw	s2,-1816(gp) # 200002c0 <pInformation>
    3616:	40006637          	lui	a2,0x40006
    361a:	c5062783          	lw	a5,-944(a2) # 40005c50 <_eusrstack+0x20000c50>
    361e:	00894683          	lbu	a3,8(s2)
    3622:	4725                	li	a4,9
    3624:	1141                	addi	sp,sp,-16
    3626:	04e68b63          	beq	a3,a4,367c <Setup0_Process+0x6e>
    362a:	6441                	lui	s0,0x10
    362c:	fff40713          	addi	a4,s0,-1 # ffff <_data_lma+0x9c6b>
    3630:	200036b7          	lui	a3,0x20003
    3634:	8ff9                	and	a5,a5,a4
    3636:	0691                	addi	a3,a3,4
    3638:	97b6                	add	a5,a5,a3
    363a:	0786                	slli	a5,a5,0x1
    363c:	4380                	lw	s0,0(a5)
    363e:	8c79                	and	s0,s0,a4
    3640:	0406                	slli	s0,s0,0x1
    3642:	9432                	add	s0,s0,a2
    3644:	00044783          	lbu	a5,0(s0)
    3648:	00f90023          	sb	a5,0(s2)
    364c:	00144783          	lbu	a5,1(s0)
    3650:	00f900a3          	sb	a5,1(s2)
    3654:	00445503          	lhu	a0,4(s0)
    3658:	33b000ef          	jal	ra,4192 <ByteSwap>
    365c:	00a91123          	sh	a0,2(s2)
    3660:	00845503          	lhu	a0,8(s0)
    3664:	8e81a903          	lw	s2,-1816(gp) # 200002c0 <pInformation>
    3668:	32b000ef          	jal	ra,4192 <ByteSwap>
    366c:	00a91223          	sh	a0,4(s2)
    3670:	00c45703          	lhu	a4,12(s0)
    3674:	8e81a783          	lw	a5,-1816(gp) # 200002c0 <pInformation>
    3678:	00e79323          	sh	a4,6(a5)
    367c:	8e81a783          	lw	a5,-1816(gp) # 200002c0 <pInformation>
    3680:	4705                	li	a4,1
    3682:	00e78423          	sb	a4,8(a5)
    3686:	0067d703          	lhu	a4,6(a5)
    368a:	0017c403          	lbu	s0,1(a5)
    368e:	0e071a63          	bnez	a4,3782 <Setup0_Process+0x174>
    3692:	0007c703          	lbu	a4,0(a5)
    3696:	07f77713          	andi	a4,a4,127
    369a:	e361                	bnez	a4,375a <Setup0_Process+0x14c>
    369c:	4725                	li	a4,9
    369e:	00e41663          	bne	s0,a4,36aa <Setup0_Process+0x9c>
    36a2:	c79ff0ef          	jal	ra,331a <Standard_SetConfiguration>
    36a6:	e53d                	bnez	a0,3714 <Setup0_Process+0x106>
    36a8:	a81d                	j	36de <Setup0_Process+0xd0>
    36aa:	4715                	li	a4,5
    36ac:	04e41c63          	bne	s0,a4,3704 <Setup0_Process+0xf6>
    36b0:	00378703          	lb	a4,3(a5)
    36b4:	00075c63          	bgez	a4,36cc <Setup0_Process+0xbe>
    36b8:	47a1                	li	a5,8
    36ba:	8e81a703          	lw	a4,-1816(gp) # 200002c0 <pInformation>
    36be:	00f70423          	sb	a5,8(a4) # 1008 <KM_AnalyzeConfigDesc+0x8>
    36c2:	f17ff0ef          	jal	ra,35d8 <Post0_Process>
    36c6:	0141                	addi	sp,sp,16
    36c8:	acdfc06f          	j	194 <__riscv_restore_0>
    36cc:	0027c703          	lbu	a4,2(a5)
    36d0:	f765                	bnez	a4,36b8 <Setup0_Process+0xaa>
    36d2:	0047d703          	lhu	a4,4(a5)
    36d6:	f36d                	bnez	a4,36b8 <Setup0_Process+0xaa>
    36d8:	00a7c783          	lbu	a5,10(a5)
    36dc:	fff1                	bnez	a5,36b8 <Setup0_Process+0xaa>
    36de:	400067b7          	lui	a5,0x40006
    36e2:	c507a783          	lw	a5,-944(a5) # 40005c50 <_eusrstack+0x20000c50>
    36e6:	20003737          	lui	a4,0x20003
    36ea:	0709                	addi	a4,a4,2
    36ec:	07c2                	slli	a5,a5,0x10
    36ee:	83c1                	srli	a5,a5,0x10
    36f0:	97ba                	add	a5,a5,a4
    36f2:	0786                	slli	a5,a5,0x1
    36f4:	0007a023          	sw	zero,0(a5)
    36f8:	03000713          	li	a4,48
    36fc:	8ee19c23          	sh	a4,-1800(gp) # 200002d0 <SaveTState>
    3700:	4799                	li	a5,6
    3702:	bf65                	j	36ba <Setup0_Process+0xac>
    3704:	470d                	li	a4,3
    3706:	02e41863          	bne	s0,a4,3736 <Setup0_Process+0x128>
    370a:	0037c683          	lbu	a3,3(a5)
    370e:	4705                	li	a4,1
    3710:	00e68d63          	beq	a3,a4,372a <Setup0_Process+0x11c>
    3714:	8ec1a783          	lw	a5,-1812(gp) # 200002c4 <pProperty>
    3718:	8522                	mv	a0,s0
    371a:	4bdc                	lw	a5,20(a5)
    371c:	9782                	jalr	a5
    371e:	470d                	li	a4,3
    3720:	47a5                	li	a5,9
    3722:	f8e50ce3          	beq	a0,a4,36ba <Setup0_Process+0xac>
    3726:	dd45                	beqz	a0,36de <Setup0_Process+0xd0>
    3728:	bf41                	j	36b8 <Setup0_Process+0xaa>
    372a:	0047d783          	lhu	a5,4(a5)
    372e:	f3fd                	bnez	a5,3714 <Setup0_Process+0x106>
    3730:	e69ff0ef          	jal	ra,3598 <Standard_SetDeviceFeature>
    3734:	bf8d                	j	36a6 <Setup0_Process+0x98>
    3736:	4705                	li	a4,1
    3738:	fce41ee3          	bne	s0,a4,3714 <Setup0_Process+0x106>
    373c:	0037c703          	lbu	a4,3(a5)
    3740:	fc871ae3          	bne	a4,s0,3714 <Setup0_Process+0x106>
    3744:	0047d703          	lhu	a4,4(a5)
    3748:	f771                	bnez	a4,3714 <Setup0_Process+0x106>
    374a:	0097c783          	lbu	a5,9(a5)
    374e:	0207f793          	andi	a5,a5,32
    3752:	d3e9                	beqz	a5,3714 <Setup0_Process+0x106>
    3754:	c59ff0ef          	jal	ra,33ac <Standard_ClearFeature>
    3758:	b7b9                	j	36a6 <Setup0_Process+0x98>
    375a:	4785                	li	a5,1
    375c:	00f71863          	bne	a4,a5,376c <Setup0_Process+0x15e>
    3760:	47ad                	li	a5,11
    3762:	faf419e3          	bne	s0,a5,3714 <Setup0_Process+0x106>
    3766:	bebff0ef          	jal	ra,3350 <Standard_SetInterface>
    376a:	bf35                	j	36a6 <Setup0_Process+0x98>
    376c:	4689                	li	a3,2
    376e:	fad713e3          	bne	a4,a3,3714 <Setup0_Process+0x106>
    3772:	fef401e3          	beq	s0,a5,3754 <Setup0_Process+0x146>
    3776:	478d                	li	a5,3
    3778:	f8f41ee3          	bne	s0,a5,3714 <Setup0_Process+0x106>
    377c:	d5bff0ef          	jal	ra,34d6 <Standard_SetEndPointFeature>
    3780:	b71d                	j	36a6 <Setup0_Process+0x98>
    3782:	4719                	li	a4,6
    3784:	02e41b63          	bne	s0,a4,37ba <Setup0_Process+0x1ac>
    3788:	0007c703          	lbu	a4,0(a5)
    378c:	07f77713          	andi	a4,a4,127
    3790:	e37d                	bnez	a4,3876 <Setup0_Process+0x268>
    3792:	0027c783          	lbu	a5,2(a5)
    3796:	4685                	li	a3,1
    3798:	8ec1a703          	lw	a4,-1812(gp) # 200002c4 <pProperty>
    379c:	00d79563          	bne	a5,a3,37a6 <Setup0_Process+0x198>
    37a0:	4f5c                	lw	a5,28(a4)
    37a2:	cbf1                	beqz	a5,3876 <Setup0_Process+0x268>
    37a4:	a0a1                	j	37ec <Setup0_Process+0x1de>
    37a6:	4689                	li	a3,2
    37a8:	00d79463          	bne	a5,a3,37b0 <Setup0_Process+0x1a2>
    37ac:	531c                	lw	a5,32(a4)
    37ae:	bfd5                	j	37a2 <Setup0_Process+0x194>
    37b0:	468d                	li	a3,3
    37b2:	0cd79263          	bne	a5,a3,3876 <Setup0_Process+0x268>
    37b6:	535c                	lw	a5,36(a4)
    37b8:	b7ed                	j	37a2 <Setup0_Process+0x194>
    37ba:	e075                	bnez	s0,389e <Setup0_Process+0x290>
    37bc:	0027d703          	lhu	a4,2(a5)
    37c0:	eb5d                	bnez	a4,3876 <Setup0_Process+0x268>
    37c2:	43d8                	lw	a4,4(a5)
    37c4:	76c1                	lui	a3,0xffff0
    37c6:	0ff68693          	addi	a3,a3,255 # ffff00ff <_eusrstack+0xdffeb0ff>
    37ca:	8f75                	and	a4,a4,a3
    37cc:	000206b7          	lui	a3,0x20
    37d0:	0ad71363          	bne	a4,a3,3876 <Setup0_Process+0x268>
    37d4:	0007c703          	lbu	a4,0(a5)
    37d8:	07f77713          	andi	a4,a4,127
    37dc:	ef1d                	bnez	a4,381a <Setup0_Process+0x20c>
    37de:	0047d783          	lhu	a5,4(a5)
    37e2:	ebd1                	bnez	a5,3876 <Setup0_Process+0x268>
    37e4:	000037b7          	lui	a5,0x3
    37e8:	1be78793          	addi	a5,a5,446 # 31be <Standard_GetStatus>
    37ec:	8e81a703          	lw	a4,-1816(gp) # 200002c0 <pInformation>
    37f0:	4501                	li	a0,0
    37f2:	00071923          	sh	zero,18(a4) # 20003012 <_ebss+0x1c4a>
    37f6:	cf1c                	sw	a5,24(a4)
    37f8:	9782                	jalr	a5
    37fa:	4501                	li	a0,0
    37fc:	8e81a783          	lw	a5,-1816(gp) # 200002c0 <pInformation>
    3800:	66c1                	lui	a3,0x10
    3802:	16fd                	addi	a3,a3,-1
    3804:	0107d703          	lhu	a4,16(a5)
    3808:	08d70463          	beq	a4,a3,3890 <Setup0_Process+0x282>
    380c:	4689                	li	a3,2
    380e:	00d50463          	beq	a0,a3,3816 <Setup0_Process+0x208>
    3812:	0e071863          	bnez	a4,3902 <Setup0_Process+0x2f4>
    3816:	4721                	li	a4,8
    3818:	a8ad                	j	3892 <Setup0_Process+0x284>
    381a:	4685                	li	a3,1
    381c:	02d71063          	bne	a4,a3,383c <Setup0_Process+0x22e>
    3820:	8ec1a703          	lw	a4,-1812(gp) # 200002c4 <pProperty>
    3824:	0057c503          	lbu	a0,5(a5)
    3828:	4581                	li	a1,0
    382a:	4f18                	lw	a4,24(a4)
    382c:	9702                	jalr	a4
    382e:	e521                	bnez	a0,3876 <Setup0_Process+0x268>
    3830:	8e81a783          	lw	a5,-1816(gp) # 200002c0 <pInformation>
    3834:	00a7c783          	lbu	a5,10(a5)
    3838:	f7d5                	bnez	a5,37e4 <Setup0_Process+0x1d6>
    383a:	a835                	j	3876 <Setup0_Process+0x268>
    383c:	4689                	li	a3,2
    383e:	02d71c63          	bne	a4,a3,3876 <Setup0_Process+0x268>
    3842:	0057c703          	lbu	a4,5(a5)
    3846:	400066b7          	lui	a3,0x40006
    384a:	c0068693          	addi	a3,a3,-1024 # 40005c00 <_eusrstack+0x20000c00>
    384e:	00f77613          	andi	a2,a4,15
    3852:	00261793          	slli	a5,a2,0x2
    3856:	97b6                	add	a5,a5,a3
    3858:	439c                	lw	a5,0(a5)
    385a:	01871693          	slli	a3,a4,0x18
    385e:	86e1                	srai	a3,a3,0x18
    3860:	0206dc63          	bgez	a3,3898 <Setup0_Process+0x28a>
    3864:	0307f793          	andi	a5,a5,48
    3868:	8181c683          	lbu	a3,-2024(gp) # 200001f0 <Device_Table>
    386c:	00d67563          	bgeu	a2,a3,3876 <Setup0_Process+0x268>
    3870:	07077713          	andi	a4,a4,112
    3874:	d371                	beqz	a4,3838 <Setup0_Process+0x22a>
    3876:	8e81a703          	lw	a4,-1816(gp) # 200002c0 <pInformation>
    387a:	8ec1a783          	lw	a5,-1812(gp) # 200002c4 <pProperty>
    387e:	00174503          	lbu	a0,1(a4)
    3882:	4b9c                	lw	a5,16(a5)
    3884:	9782                	jalr	a5
    3886:	478d                	li	a5,3
    3888:	f6f51ae3          	bne	a0,a5,37fc <Setup0_Process+0x1ee>
    388c:	8e81a783          	lw	a5,-1816(gp) # 200002c0 <pInformation>
    3890:	4725                	li	a4,9
    3892:	00e78423          	sb	a4,8(a5)
    3896:	b535                	j	36c2 <Setup0_Process+0xb4>
    3898:	668d                	lui	a3,0x3
    389a:	8ff5                	and	a5,a5,a3
    389c:	b7f1                	j	3868 <Setup0_Process+0x25a>
    389e:	4721                	li	a4,8
    38a0:	00e41c63          	bne	s0,a4,38b8 <Setup0_Process+0x2aa>
    38a4:	0007c783          	lbu	a5,0(a5)
    38a8:	07f7f793          	andi	a5,a5,127
    38ac:	f7e9                	bnez	a5,3876 <Setup0_Process+0x268>
    38ae:	000037b7          	lui	a5,0x3
    38b2:	17678793          	addi	a5,a5,374 # 3176 <Standard_GetConfiguration>
    38b6:	bf1d                	j	37ec <Setup0_Process+0x1de>
    38b8:	4729                	li	a4,10
    38ba:	fae41ee3          	bne	s0,a4,3876 <Setup0_Process+0x268>
    38be:	0007c703          	lbu	a4,0(a5)
    38c2:	4685                	li	a3,1
    38c4:	07f77713          	andi	a4,a4,127
    38c8:	fad717e3          	bne	a4,a3,3876 <Setup0_Process+0x268>
    38cc:	00a7c703          	lbu	a4,10(a5)
    38d0:	d35d                	beqz	a4,3876 <Setup0_Process+0x268>
    38d2:	0027d703          	lhu	a4,2(a5)
    38d6:	f345                	bnez	a4,3876 <Setup0_Process+0x268>
    38d8:	43d8                	lw	a4,4(a5)
    38da:	76c1                	lui	a3,0xffff0
    38dc:	0ff68693          	addi	a3,a3,255 # ffff00ff <_eusrstack+0xdffeb0ff>
    38e0:	8f75                	and	a4,a4,a3
    38e2:	66c1                	lui	a3,0x10
    38e4:	f8d719e3          	bne	a4,a3,3876 <Setup0_Process+0x268>
    38e8:	8ec1a703          	lw	a4,-1812(gp) # 200002c4 <pProperty>
    38ec:	0057c503          	lbu	a0,5(a5)
    38f0:	4581                	li	a1,0
    38f2:	4f18                	lw	a4,24(a4)
    38f4:	9702                	jalr	a4
    38f6:	f141                	bnez	a0,3876 <Setup0_Process+0x268>
    38f8:	000037b7          	lui	a5,0x3
    38fc:	19a78793          	addi	a5,a5,410 # 319a <Standard_GetInterface>
    3900:	b5f5                	j	37ec <Setup0_Process+0x1de>
    3902:	00078683          	lb	a3,0(a5)
    3906:	0406d563          	bgez	a3,3950 <Setup0_Process+0x342>
    390a:	8ec1a683          	lw	a3,-1812(gp) # 200002c4 <pProperty>
    390e:	0067d583          	lhu	a1,6(a5)
    3912:	02c6c603          	lbu	a2,44(a3) # 1002c <_data_lma+0x9c98>
    3916:	c62e                	sw	a1,12(sp)
    3918:	4532                	lw	a0,12(sp)
    391a:	01061693          	slli	a3,a2,0x10
    391e:	82c1                	srli	a3,a3,0x10
    3920:	00e57a63          	bgeu	a0,a4,3934 <Setup0_Process+0x326>
    3924:	4732                	lw	a4,12(sp)
    3926:	00e79823          	sh	a4,16(a5)
    392a:	00d79a23          	sh	a3,20(a5)
    392e:	92fff0ef          	jal	ra,325c <DataStageIn>
    3932:	bb41                	j	36c2 <Setup0_Process+0xb4>
    3934:	feb77be3          	bgeu	a4,a1,392a <Setup0_Process+0x31c>
    3938:	00d77563          	bgeu	a4,a3,3942 <Setup0_Process+0x334>
    393c:	8e01a023          	sw	zero,-1824(gp) # 200002b8 <Data_Mul_MaxPacketSize>
    3940:	b7ed                	j	392a <Setup0_Process+0x31c>
    3942:	02c76733          	rem	a4,a4,a2
    3946:	f375                	bnez	a4,392a <Setup0_Process+0x31c>
    3948:	4605                	li	a2,1
    394a:	8ec1a023          	sw	a2,-1824(gp) # 200002b8 <Data_Mul_MaxPacketSize>
    394e:	bff1                	j	392a <Setup0_Process+0x31c>
    3950:	470d                	li	a4,3
    3952:	00e78423          	sb	a4,8(a5)
    3956:	670d                	lui	a4,0x3
    3958:	8ee19b23          	sh	a4,-1802(gp) # 200002ce <SaveRState>
    395c:	b39d                	j	36c2 <Setup0_Process+0xb4>

0000395e <Out0_Process>:
    395e:	ff8fc2ef          	jal	t0,156 <__riscv_save_4>
    3962:	8e81a403          	lw	s0,-1816(gp) # 200002c0 <pInformation>
    3966:	44a1                	li	s1,8
    3968:	00844783          	lbu	a5,8(s0)
    396c:	ffe78713          	addi	a4,a5,-2
    3970:	0fd77713          	andi	a4,a4,253
    3974:	cf3d                	beqz	a4,39f2 <Out0_Process+0x94>
    3976:	ffd78713          	addi	a4,a5,-3
    397a:	0fd77713          	andi	a4,a4,253
    397e:	eb55                	bnez	a4,3a32 <Out0_Process+0xd4>
    3980:	4c1c                	lw	a5,24(s0)
    3982:	cf95                	beqz	a5,39be <Out0_Process+0x60>
    3984:	01045483          	lhu	s1,16(s0)
    3988:	c8a1                	beqz	s1,39d8 <Out0_Process+0x7a>
    398a:	01445703          	lhu	a4,20(s0)
    398e:	00977363          	bgeu	a4,s1,3994 <Out0_Process+0x36>
    3992:	84ba                	mv	s1,a4
    3994:	04c2                	slli	s1,s1,0x10
    3996:	80c1                	srli	s1,s1,0x10
    3998:	8526                	mv	a0,s1
    399a:	9782                	jalr	a5
    399c:	01045783          	lhu	a5,16(s0)
    39a0:	89aa                	mv	s3,a0
    39a2:	4501                	li	a0,0
    39a4:	8f85                	sub	a5,a5,s1
    39a6:	00f41823          	sh	a5,16(s0)
    39aa:	01245783          	lhu	a5,18(s0)
    39ae:	97a6                	add	a5,a5,s1
    39b0:	00f41923          	sh	a5,18(s0)
    39b4:	2fa1                	jal	410c <GetEPRxAddr>
    39b6:	85aa                	mv	a1,a0
    39b8:	8626                	mv	a2,s1
    39ba:	854e                	mv	a0,s3
    39bc:	2349                	jal	3f3e <PMAToUserBufferCopy>
    39be:	01045783          	lhu	a5,16(s0)
    39c2:	cb99                	beqz	a5,39d8 <Out0_Process+0x7a>
    39c4:	670d                	lui	a4,0x3
    39c6:	4581                	li	a1,0
    39c8:	4501                	li	a0,0
    39ca:	8ee19b23          	sh	a4,-1802(gp) # 200002ce <SaveRState>
    39ce:	2fb9                	jal	412c <SetEPTxCount>
    39d0:	03000713          	li	a4,48
    39d4:	8ee19c23          	sh	a4,-1800(gp) # 200002d0 <SaveTState>
    39d8:	01045783          	lhu	a5,16(s0)
    39dc:	01445683          	lhu	a3,20(s0)
    39e0:	8e81a703          	lw	a4,-1816(gp) # 200002c0 <pInformation>
    39e4:	00d7ef63          	bltu	a5,a3,3a02 <Out0_Process+0xa4>
    39e8:	478d                	li	a5,3
    39ea:	00f70423          	sb	a5,8(a4) # 3008 <TIM_GetITStatus+0x14>
    39ee:	00874483          	lbu	s1,8(a4)
    39f2:	8e81a783          	lw	a5,-1816(gp) # 200002c0 <pInformation>
    39f6:	00978423          	sb	s1,8(a5)
    39fa:	bdfff0ef          	jal	ra,35d8 <Post0_Process>
    39fe:	f8cfc06f          	j	18a <__riscv_restore_4>
    3a02:	c399                	beqz	a5,3a08 <Out0_Process+0xaa>
    3a04:	4795                	li	a5,5
    3a06:	b7d5                	j	39ea <Out0_Process+0x8c>
    3a08:	4799                	li	a5,6
    3a0a:	00f70423          	sb	a5,8(a4)
    3a0e:	400067b7          	lui	a5,0x40006
    3a12:	c507a783          	lw	a5,-944(a5) # 40005c50 <_eusrstack+0x20000c50>
    3a16:	200036b7          	lui	a3,0x20003
    3a1a:	0689                	addi	a3,a3,2
    3a1c:	07c2                	slli	a5,a5,0x10
    3a1e:	83c1                	srli	a5,a5,0x10
    3a20:	97b6                	add	a5,a5,a3
    3a22:	0786                	slli	a5,a5,0x1
    3a24:	0007a023          	sw	zero,0(a5)
    3a28:	03000693          	li	a3,48
    3a2c:	8ed19c23          	sh	a3,-1800(gp) # 200002d0 <SaveTState>
    3a30:	bf7d                	j	39ee <Out0_Process+0x90>
    3a32:	471d                	li	a4,7
    3a34:	44a1                	li	s1,8
    3a36:	fae79ee3          	bne	a5,a4,39f2 <Out0_Process+0x94>
    3a3a:	8ec1a783          	lw	a5,-1812(gp) # 200002c4 <pProperty>
    3a3e:	47dc                	lw	a5,12(a5)
    3a40:	9782                	jalr	a5
    3a42:	bf45                	j	39f2 <Out0_Process+0x94>

00003a44 <SetDeviceAddress>:
    3a44:	8181c303          	lbu	t1,-2024(gp) # 200001f0 <Device_Table>
    3a48:	40006637          	lui	a2,0x40006
    3a4c:	65c1                	lui	a1,0x10
    3a4e:	6805                	lui	a6,0x1
    3a50:	68a1                	lui	a7,0x8
    3a52:	4701                	li	a4,0
    3a54:	c0060613          	addi	a2,a2,-1024 # 40005c00 <_eusrstack+0x20000c00>
    3a58:	15fd                	addi	a1,a1,-1
    3a5a:	f0f80813          	addi	a6,a6,-241 # f0f <USBH_EnumRootDevice+0x7f>
    3a5e:	08088893          	addi	a7,a7,128 # 8080 <_data_lma+0x1cec>
    3a62:	00676963          	bltu	a4,t1,3a74 <SetDeviceAddress+0x30>
    3a66:	08056513          	ori	a0,a0,128
    3a6a:	400067b7          	lui	a5,0x40006
    3a6e:	c4a7a623          	sw	a0,-948(a5) # 40005c4c <_eusrstack+0x20000c4c>
    3a72:	8082                	ret
    3a74:	00271693          	slli	a3,a4,0x2
    3a78:	96b2                	add	a3,a3,a2
    3a7a:	429c                	lw	a5,0(a3)
    3a7c:	8fed                	and	a5,a5,a1
    3a7e:	0107f7b3          	and	a5,a5,a6
    3a82:	8fd9                	or	a5,a5,a4
    3a84:	0117e7b3          	or	a5,a5,a7
    3a88:	c29c                	sw	a5,0(a3)
    3a8a:	0705                	addi	a4,a4,1
    3a8c:	bfd9                	j	3a62 <SetDeviceAddress+0x1e>

00003a8e <In0_Process>:
    3a8e:	ee2fc2ef          	jal	t0,170 <__riscv_save_0>
    3a92:	8e81a783          	lw	a5,-1816(gp) # 200002c0 <pInformation>
    3a96:	0087c683          	lbu	a3,8(a5)
    3a9a:	ffe68713          	addi	a4,a3,-2 # 20002ffe <_ebss+0x1c36>
    3a9e:	0fd77713          	andi	a4,a4,253
    3aa2:	ef19                	bnez	a4,3ac0 <In0_Process+0x32>
    3aa4:	fb8ff0ef          	jal	ra,325c <DataStageIn>
    3aa8:	8e81a783          	lw	a5,-1816(gp) # 200002c0 <pInformation>
    3aac:	0087c703          	lbu	a4,8(a5)
    3ab0:	8e81a783          	lw	a5,-1816(gp) # 200002c0 <pInformation>
    3ab4:	00e78423          	sb	a4,8(a5)
    3ab8:	b21ff0ef          	jal	ra,35d8 <Post0_Process>
    3abc:	ed8fc06f          	j	194 <__riscv_restore_0>
    3ac0:	4619                	li	a2,6
    3ac2:	4721                	li	a4,8
    3ac4:	fec696e3          	bne	a3,a2,3ab0 <In0_Process+0x22>
    3ac8:	0017c683          	lbu	a3,1(a5)
    3acc:	4715                	li	a4,5
    3ace:	00e69f63          	bne	a3,a4,3aec <In0_Process+0x5e>
    3ad2:	0007c703          	lbu	a4,0(a5)
    3ad6:	07f77713          	andi	a4,a4,127
    3ada:	eb09                	bnez	a4,3aec <In0_Process+0x5e>
    3adc:	0037c503          	lbu	a0,3(a5)
    3ae0:	f65ff0ef          	jal	ra,3a44 <SetDeviceAddress>
    3ae4:	8f01a783          	lw	a5,-1808(gp) # 200002c8 <pUser_Standard_Requests>
    3ae8:	539c                	lw	a5,32(a5)
    3aea:	9782                	jalr	a5
    3aec:	8ec1a783          	lw	a5,-1812(gp) # 200002c4 <pProperty>
    3af0:	479c                	lw	a5,8(a5)
    3af2:	9782                	jalr	a5
    3af4:	4721                	li	a4,8
    3af6:	bf6d                	j	3ab0 <In0_Process+0x22>

00003af8 <NOP_Process>:
    3af8:	8082                	ret

00003afa <USB_Init>:
    3afa:	e76fc2ef          	jal	t0,170 <__riscv_save_0>
    3afe:	200017b7          	lui	a5,0x20001
    3b02:	38878793          	addi	a5,a5,904 # 20001388 <Device_Info>
    3b06:	8ef1a423          	sw	a5,-1816(gp) # 200002c0 <pInformation>
    3b0a:	4709                	li	a4,2
    3b0c:	00e78423          	sb	a4,8(a5)
    3b10:	20000737          	lui	a4,0x20000
    3b14:	12070693          	addi	a3,a4,288 # 20000120 <Device_Property>
    3b18:	8ed1a623          	sw	a3,-1812(gp) # 200002c4 <pProperty>
    3b1c:	200007b7          	lui	a5,0x20000
    3b20:	15078793          	addi	a5,a5,336 # 20000150 <User_Standard_Requests>
    3b24:	8ef1a823          	sw	a5,-1808(gp) # 200002c8 <pUser_Standard_Requests>
    3b28:	12072783          	lw	a5,288(a4)
    3b2c:	9782                	jalr	a5
    3b2e:	e66fc06f          	j	194 <__riscv_restore_0>

00003b32 <CTR_LP>:
    3b32:	e16fc2ef          	jal	t0,148 <__riscv_save_10>
    3b36:	1141                	addi	sp,sp,-16
    3b38:	20000a37          	lui	s4,0x20000
    3b3c:	20000ab7          	lui	s5,0x20000
    3b40:	79e1                	lui	s3,0xffff8
    3b42:	00011723          	sh	zero,14(sp)
    3b46:	0e8a0a13          	addi	s4,s4,232 # 200000e8 <pEpInt_IN>
    3b4a:	104a8a93          	addi	s5,s5,260 # 20000104 <pEpInt_OUT>
    3b4e:	08098993          	addi	s3,s3,128 # ffff8080 <_eusrstack+0xdfff3080>
    3b52:	400065b7          	lui	a1,0x40006
    3b56:	c445a783          	lw	a5,-956(a1) # 40005c44 <_eusrstack+0x20000c44>
    3b5a:	01079713          	slli	a4,a5,0x10
    3b5e:	8341                	srli	a4,a4,0x10
    3b60:	90e19423          	sh	a4,-1784(gp) # 200002e0 <wIstr>
    3b64:	01079713          	slli	a4,a5,0x10
    3b68:	18075063          	bgez	a4,3ce8 <CTR_LP+0x1b6>
    3b6c:	9081d783          	lhu	a5,-1784(gp) # 200002e0 <wIstr>
    3b70:	843a                	mv	s0,a4
    3b72:	8bbd                	andi	a5,a5,15
    3b74:	8ef18323          	sb	a5,-1818(gp) # 200002be <EPindex>
    3b78:	c0058693          	addi	a3,a1,-1024
    3b7c:	32079963          	bnez	a5,3eae <CTR_LP+0x37c>
    3b80:	c005a703          	lw	a4,-1024(a1)
    3b84:	8f618793          	addi	a5,gp,-1802 # 200002ce <SaveRState>
    3b88:	0742                	slli	a4,a4,0x10
    3b8a:	8341                	srli	a4,a4,0x10
    3b8c:	00e79023          	sh	a4,0(a5)
    3b90:	0007d703          	lhu	a4,0(a5)
    3b94:	8f818693          	addi	a3,gp,-1800 # 200002d0 <SaveTState>
    3b98:	03077713          	andi	a4,a4,48
    3b9c:	00e69023          	sh	a4,0(a3)
    3ba0:	0007d703          	lhu	a4,0(a5)
    3ba4:	668d                	lui	a3,0x3
    3ba6:	6621                	lui	a2,0x8
    3ba8:	8f75                	and	a4,a4,a3
    3baa:	00e79023          	sh	a4,0(a5)
    3bae:	c005a703          	lw	a4,-1024(a1)
    3bb2:	67a5                	lui	a5,0x9
    3bb4:	fbf78793          	addi	a5,a5,-65 # 8fbf <_data_lma+0x2c2b>
    3bb8:	8f7d                	and	a4,a4,a5
    3bba:	c005a783          	lw	a5,-1024(a1)
    3bbe:	66b1                	lui	a3,0xc
    3bc0:	f8f68693          	addi	a3,a3,-113 # bf8f <_data_lma+0x5bfb>
    3bc4:	8ff5                	and	a5,a5,a3
    3bc6:	6689                	lui	a3,0x2
    3bc8:	8fb5                	xor	a5,a5,a3
    3bca:	02074713          	xori	a4,a4,32
    3bce:	01071693          	slli	a3,a4,0x10
    3bd2:	08060613          	addi	a2,a2,128 # 8080 <_data_lma+0x1cec>
    3bd6:	8f5d                	or	a4,a4,a5
    3bd8:	8f51                	or	a4,a4,a2
    3bda:	82c1                	srli	a3,a3,0x10
    3bdc:	c0e5a023          	sw	a4,-1024(a1)
    3be0:	0136e733          	or	a4,a3,s3
    3be4:	0742                	slli	a4,a4,0x10
    3be6:	8f618493          	addi	s1,gp,-1802 # 200002ce <SaveRState>
    3bea:	8f818913          	addi	s2,gp,-1800 # 200002d0 <SaveTState>
    3bee:	40006637          	lui	a2,0x40006
    3bf2:	02000593          	li	a1,32
    3bf6:	8341                	srli	a4,a4,0x10
    3bf8:	c0062683          	lw	a3,-1024(a2) # 40005c00 <_eusrstack+0x20000c00>
    3bfc:	0306f693          	andi	a3,a3,48
    3c00:	0eb69763          	bne	a3,a1,3cee <CTR_LP+0x1bc>
    3c04:	0137e7b3          	or	a5,a5,s3
    3c08:	66c1                	lui	a3,0x10
    3c0a:	07c2                	slli	a5,a5,0x10
    3c0c:	40006637          	lui	a2,0x40006
    3c10:	16fd                	addi	a3,a3,-1
    3c12:	650d                	lui	a0,0x3
    3c14:	6589                	lui	a1,0x2
    3c16:	83c1                	srli	a5,a5,0x10
    3c18:	c0062703          	lw	a4,-1024(a2) # 40005c00 <_eusrstack+0x20000c00>
    3c1c:	c0060413          	addi	s0,a2,-1024
    3c20:	8f75                	and	a4,a4,a3
    3c22:	8f69                	and	a4,a4,a0
    3c24:	0cb71863          	bne	a4,a1,3cf4 <CTR_LP+0x1c2>
    3c28:	9081d783          	lhu	a5,-1784(gp) # 200002e0 <wIstr>
    3c2c:	8bc1                	andi	a5,a5,16
    3c2e:	efe1                	bnez	a5,3d06 <CTR_LP+0x1d4>
    3c30:	401c                	lw	a5,0(s0)
    3c32:	69a5                	lui	s3,0x9
    3c34:	f0f98713          	addi	a4,s3,-241 # 8f0f <_data_lma+0x2b7b>
    3c38:	8ff9                	and	a5,a5,a4
    3c3a:	c01c                	sw	a5,0(s0)
    3c3c:	e53ff0ef          	jal	ra,3a8e <In0_Process>
    3c40:	4018                	lw	a4,0(s0)
    3c42:	4014                	lw	a3,0(s0)
    3c44:	67b1                	lui	a5,0xc
    3c46:	f8f78793          	addi	a5,a5,-113 # bf8f <_data_lma+0x5bfb>
    3c4a:	8ff5                	and	a5,a5,a3
    3c4c:	0004d683          	lhu	a3,0(s1) # 10000 <_data_lma+0x9c6c>
    3c50:	fbf98993          	addi	s3,s3,-65
    3c54:	01377733          	and	a4,a4,s3
    3c58:	01369613          	slli	a2,a3,0x13
    3c5c:	00065463          	bgez	a2,3c64 <CTR_LP+0x132>
    3c60:	6685                	lui	a3,0x1
    3c62:	8fb5                	xor	a5,a5,a3
    3c64:	0004d683          	lhu	a3,0(s1)
    3c68:	01269613          	slli	a2,a3,0x12
    3c6c:	00065463          	bgez	a2,3c74 <CTR_LP+0x142>
    3c70:	6689                	lui	a3,0x2
    3c72:	8fb5                	xor	a5,a5,a3
    3c74:	00095683          	lhu	a3,0(s2)
    3c78:	8ac1                	andi	a3,a3,16
    3c7a:	c299                	beqz	a3,3c80 <CTR_LP+0x14e>
    3c7c:	01074713          	xori	a4,a4,16
    3c80:	00095683          	lhu	a3,0(s2)
    3c84:	0206f693          	andi	a3,a3,32
    3c88:	c299                	beqz	a3,3c8e <CTR_LP+0x15c>
    3c8a:	02074713          	xori	a4,a4,32
    3c8e:	6621                	lui	a2,0x8
    3c90:	01071693          	slli	a3,a4,0x10
    3c94:	08060613          	addi	a2,a2,128 # 8080 <_data_lma+0x1cec>
    3c98:	8f5d                	or	a4,a4,a5
    3c9a:	8f51                	or	a4,a4,a2
    3c9c:	40006637          	lui	a2,0x40006
    3ca0:	c0e62023          	sw	a4,-1024(a2) # 40005c00 <_eusrstack+0x20000c00>
    3ca4:	7761                	lui	a4,0xffff8
    3ca6:	82c1                	srli	a3,a3,0x10
    3ca8:	08070713          	addi	a4,a4,128 # ffff8080 <_eusrstack+0xdfff3080>
    3cac:	8f55                	or	a4,a4,a3
    3cae:	0742                	slli	a4,a4,0x10
    3cb0:	8341                	srli	a4,a4,0x10
    3cb2:	c0062683          	lw	a3,-1024(a2)
    3cb6:	00095583          	lhu	a1,0(s2)
    3cba:	0306f693          	andi	a3,a3,48
    3cbe:	02b69e63          	bne	a3,a1,3cfa <CTR_LP+0x1c8>
    3cc2:	7761                	lui	a4,0xffff8
    3cc4:	08070713          	addi	a4,a4,128 # ffff8080 <_eusrstack+0xdfff3080>
    3cc8:	8fd9                	or	a5,a5,a4
    3cca:	66c1                	lui	a3,0x10
    3ccc:	07c2                	slli	a5,a5,0x10
    3cce:	40006637          	lui	a2,0x40006
    3cd2:	16fd                	addi	a3,a3,-1
    3cd4:	650d                	lui	a0,0x3
    3cd6:	83c1                	srli	a5,a5,0x10
    3cd8:	c0062703          	lw	a4,-1024(a2) # 40005c00 <_eusrstack+0x20000c00>
    3cdc:	0004d583          	lhu	a1,0(s1)
    3ce0:	8f75                	and	a4,a4,a3
    3ce2:	8f69                	and	a4,a4,a0
    3ce4:	00b71e63          	bne	a4,a1,3d00 <CTR_LP+0x1ce>
    3ce8:	0141                	addi	sp,sp,16
    3cea:	c96fc06f          	j	180 <__riscv_restore_10>
    3cee:	c0e62023          	sw	a4,-1024(a2)
    3cf2:	b719                	j	3bf8 <CTR_LP+0xc6>
    3cf4:	c0f62023          	sw	a5,-1024(a2)
    3cf8:	b705                	j	3c18 <CTR_LP+0xe6>
    3cfa:	c0e62023          	sw	a4,-1024(a2)
    3cfe:	bf55                	j	3cb2 <CTR_LP+0x180>
    3d00:	c0f62023          	sw	a5,-1024(a2)
    3d04:	bfd1                	j	3cd8 <CTR_LP+0x1a6>
    3d06:	401c                	lw	a5,0(s0)
    3d08:	6b85                	lui	s7,0x1
    3d0a:	07c2                	slli	a5,a5,0x10
    3d0c:	83c1                	srli	a5,a5,0x10
    3d0e:	00f11723          	sh	a5,14(sp)
    3d12:	00e15783          	lhu	a5,14(sp)
    3d16:	01479713          	slli	a4,a5,0x14
    3d1a:	0c075363          	bgez	a4,3de0 <CTR_LP+0x2ae>
    3d1e:	401c                	lw	a5,0(s0)
    3d20:	f8fb8713          	addi	a4,s7,-113 # f8f <USBH_EnumRootDevice+0xff>
    3d24:	8ff9                	and	a5,a5,a4
    3d26:	c01c                	sw	a5,0(s0)
    3d28:	8e7ff0ef          	jal	ra,360e <Setup0_Process>
    3d2c:	4018                	lw	a4,0(s0)
    3d2e:	67a5                	lui	a5,0x9
    3d30:	fbf78793          	addi	a5,a5,-65 # 8fbf <_data_lma+0x2c2b>
    3d34:	4014                	lw	a3,0(s0)
    3d36:	8f7d                	and	a4,a4,a5
    3d38:	67b1                	lui	a5,0xc
    3d3a:	f8f78793          	addi	a5,a5,-113 # bf8f <_data_lma+0x5bfb>
    3d3e:	8ff5                	and	a5,a5,a3
    3d40:	0004d683          	lhu	a3,0(s1)
    3d44:	01369613          	slli	a2,a3,0x13
    3d48:	00065463          	bgez	a2,3d50 <CTR_LP+0x21e>
    3d4c:	0177c7b3          	xor	a5,a5,s7
    3d50:	0004d683          	lhu	a3,0(s1)
    3d54:	01269613          	slli	a2,a3,0x12
    3d58:	00065463          	bgez	a2,3d60 <CTR_LP+0x22e>
    3d5c:	6689                	lui	a3,0x2
    3d5e:	8fb5                	xor	a5,a5,a3
    3d60:	00095683          	lhu	a3,0(s2)
    3d64:	8ac1                	andi	a3,a3,16
    3d66:	c299                	beqz	a3,3d6c <CTR_LP+0x23a>
    3d68:	01074713          	xori	a4,a4,16
    3d6c:	00095683          	lhu	a3,0(s2)
    3d70:	0206f693          	andi	a3,a3,32
    3d74:	c299                	beqz	a3,3d7a <CTR_LP+0x248>
    3d76:	02074713          	xori	a4,a4,32
    3d7a:	6621                	lui	a2,0x8
    3d7c:	01071693          	slli	a3,a4,0x10
    3d80:	08060613          	addi	a2,a2,128 # 8080 <_data_lma+0x1cec>
    3d84:	8f5d                	or	a4,a4,a5
    3d86:	8f51                	or	a4,a4,a2
    3d88:	40006637          	lui	a2,0x40006
    3d8c:	c0e62023          	sw	a4,-1024(a2) # 40005c00 <_eusrstack+0x20000c00>
    3d90:	7761                	lui	a4,0xffff8
    3d92:	82c1                	srli	a3,a3,0x10
    3d94:	08070713          	addi	a4,a4,128 # ffff8080 <_eusrstack+0xdfff3080>
    3d98:	8f55                	or	a4,a4,a3
    3d9a:	0742                	slli	a4,a4,0x10
    3d9c:	8341                	srli	a4,a4,0x10
    3d9e:	c0062683          	lw	a3,-1024(a2)
    3da2:	00095583          	lhu	a1,0(s2)
    3da6:	0306f693          	andi	a3,a3,48
    3daa:	02b69863          	bne	a3,a1,3dda <CTR_LP+0x2a8>
    3dae:	7761                	lui	a4,0xffff8
    3db0:	08070713          	addi	a4,a4,128 # ffff8080 <_eusrstack+0xdfff3080>
    3db4:	8fd9                	or	a5,a5,a4
    3db6:	66c1                	lui	a3,0x10
    3db8:	07c2                	slli	a5,a5,0x10
    3dba:	40006637          	lui	a2,0x40006
    3dbe:	16fd                	addi	a3,a3,-1
    3dc0:	650d                	lui	a0,0x3
    3dc2:	83c1                	srli	a5,a5,0x10
    3dc4:	c0062703          	lw	a4,-1024(a2) # 40005c00 <_eusrstack+0x20000c00>
    3dc8:	0004d583          	lhu	a1,0(s1)
    3dcc:	8f75                	and	a4,a4,a3
    3dce:	8f69                	and	a4,a4,a0
    3dd0:	f0b70ce3          	beq	a4,a1,3ce8 <CTR_LP+0x1b6>
    3dd4:	c0f62023          	sw	a5,-1024(a2)
    3dd8:	b7f5                	j	3dc4 <CTR_LP+0x292>
    3dda:	c0e62023          	sw	a4,-1024(a2)
    3dde:	b7c1                	j	3d9e <CTR_LP+0x26c>
    3de0:	00e15783          	lhu	a5,14(sp)
    3de4:	07c2                	slli	a5,a5,0x10
    3de6:	87c1                	srai	a5,a5,0x10
    3de8:	d607d5e3          	bgez	a5,3b52 <CTR_LP+0x20>
    3dec:	401c                	lw	a5,0(s0)
    3dee:	f8fb8713          	addi	a4,s7,-113
    3df2:	8ff9                	and	a5,a5,a4
    3df4:	c01c                	sw	a5,0(s0)
    3df6:	b69ff0ef          	jal	ra,395e <Out0_Process>
    3dfa:	4018                	lw	a4,0(s0)
    3dfc:	67a5                	lui	a5,0x9
    3dfe:	fbf78793          	addi	a5,a5,-65 # 8fbf <_data_lma+0x2c2b>
    3e02:	4014                	lw	a3,0(s0)
    3e04:	8f7d                	and	a4,a4,a5
    3e06:	67b1                	lui	a5,0xc
    3e08:	f8f78793          	addi	a5,a5,-113 # bf8f <_data_lma+0x5bfb>
    3e0c:	8ff5                	and	a5,a5,a3
    3e0e:	0004d683          	lhu	a3,0(s1)
    3e12:	01369613          	slli	a2,a3,0x13
    3e16:	00065463          	bgez	a2,3e1e <CTR_LP+0x2ec>
    3e1a:	0177c7b3          	xor	a5,a5,s7
    3e1e:	0004d683          	lhu	a3,0(s1)
    3e22:	01269613          	slli	a2,a3,0x12
    3e26:	00065463          	bgez	a2,3e2e <CTR_LP+0x2fc>
    3e2a:	6689                	lui	a3,0x2
    3e2c:	8fb5                	xor	a5,a5,a3
    3e2e:	00095683          	lhu	a3,0(s2)
    3e32:	8ac1                	andi	a3,a3,16
    3e34:	c299                	beqz	a3,3e3a <CTR_LP+0x308>
    3e36:	01074713          	xori	a4,a4,16
    3e3a:	00095683          	lhu	a3,0(s2)
    3e3e:	0206f693          	andi	a3,a3,32
    3e42:	c299                	beqz	a3,3e48 <CTR_LP+0x316>
    3e44:	02074713          	xori	a4,a4,32
    3e48:	6621                	lui	a2,0x8
    3e4a:	01071693          	slli	a3,a4,0x10
    3e4e:	08060613          	addi	a2,a2,128 # 8080 <_data_lma+0x1cec>
    3e52:	8f5d                	or	a4,a4,a5
    3e54:	8f51                	or	a4,a4,a2
    3e56:	40006637          	lui	a2,0x40006
    3e5a:	c0e62023          	sw	a4,-1024(a2) # 40005c00 <_eusrstack+0x20000c00>
    3e5e:	7761                	lui	a4,0xffff8
    3e60:	82c1                	srli	a3,a3,0x10
    3e62:	08070713          	addi	a4,a4,128 # ffff8080 <_eusrstack+0xdfff3080>
    3e66:	8f55                	or	a4,a4,a3
    3e68:	0742                	slli	a4,a4,0x10
    3e6a:	8341                	srli	a4,a4,0x10
    3e6c:	c0062683          	lw	a3,-1024(a2)
    3e70:	00095583          	lhu	a1,0(s2)
    3e74:	0306f693          	andi	a3,a3,48
    3e78:	02b69863          	bne	a3,a1,3ea8 <CTR_LP+0x376>
    3e7c:	7761                	lui	a4,0xffff8
    3e7e:	08070713          	addi	a4,a4,128 # ffff8080 <_eusrstack+0xdfff3080>
    3e82:	8fd9                	or	a5,a5,a4
    3e84:	66c1                	lui	a3,0x10
    3e86:	07c2                	slli	a5,a5,0x10
    3e88:	40006637          	lui	a2,0x40006
    3e8c:	16fd                	addi	a3,a3,-1
    3e8e:	650d                	lui	a0,0x3
    3e90:	83c1                	srli	a5,a5,0x10
    3e92:	c0062703          	lw	a4,-1024(a2) # 40005c00 <_eusrstack+0x20000c00>
    3e96:	0004d583          	lhu	a1,0(s1)
    3e9a:	8f75                	and	a4,a4,a3
    3e9c:	8f69                	and	a4,a4,a0
    3e9e:	e4b705e3          	beq	a4,a1,3ce8 <CTR_LP+0x1b6>
    3ea2:	c0f62023          	sw	a5,-1024(a2)
    3ea6:	b7f5                	j	3e92 <CTR_LP+0x360>
    3ea8:	c0e62023          	sw	a4,-1024(a2)
    3eac:	b7c1                	j	3e6c <CTR_LP+0x33a>
    3eae:	00279713          	slli	a4,a5,0x2
    3eb2:	9736                	add	a4,a4,a3
    3eb4:	4314                	lw	a3,0(a4)
    3eb6:	06c2                	slli	a3,a3,0x10
    3eb8:	82c1                	srli	a3,a3,0x10
    3eba:	00d11723          	sh	a3,14(sp)
    3ebe:	00e15683          	lhu	a3,14(sp)
    3ec2:	06c2                	slli	a3,a3,0x10
    3ec4:	86c1                	srai	a3,a3,0x10
    3ec6:	0006dd63          	bgez	a3,3ee0 <CTR_LP+0x3ae>
    3eca:	17fd                	addi	a5,a5,-1
    3ecc:	4314                	lw	a3,0(a4)
    3ece:	078a                	slli	a5,a5,0x2
    3ed0:	6605                	lui	a2,0x1
    3ed2:	97d6                	add	a5,a5,s5
    3ed4:	f8f60613          	addi	a2,a2,-113 # f8f <USBH_EnumRootDevice+0xff>
    3ed8:	439c                	lw	a5,0(a5)
    3eda:	8ef1                	and	a3,a3,a2
    3edc:	c314                	sw	a3,0(a4)
    3ede:	9782                	jalr	a5
    3ee0:	00e15783          	lhu	a5,14(sp)
    3ee4:	0807f793          	andi	a5,a5,128
    3ee8:	c60785e3          	beqz	a5,3b52 <CTR_LP+0x20>
    3eec:	8e61c783          	lbu	a5,-1818(gp) # 200002be <EPindex>
    3ef0:	400066b7          	lui	a3,0x40006
    3ef4:	c0068693          	addi	a3,a3,-1024 # 40005c00 <_eusrstack+0x20000c00>
    3ef8:	00279713          	slli	a4,a5,0x2
    3efc:	9736                	add	a4,a4,a3
    3efe:	17fd                	addi	a5,a5,-1
    3f00:	4314                	lw	a3,0(a4)
    3f02:	078a                	slli	a5,a5,0x2
    3f04:	97d2                	add	a5,a5,s4
    3f06:	6625                	lui	a2,0x9
    3f08:	f0f60613          	addi	a2,a2,-241 # 8f0f <_data_lma+0x2b7b>
    3f0c:	439c                	lw	a5,0(a5)
    3f0e:	8ef1                	and	a3,a3,a2
    3f10:	c314                	sw	a3,0(a4)
    3f12:	9782                	jalr	a5
    3f14:	b93d                	j	3b52 <CTR_LP+0x20>

00003f16 <UserToPMABufferCopy>:
    3f16:	200037b7          	lui	a5,0x20003
    3f1a:	0605                	addi	a2,a2,1
    3f1c:	95be                	add	a1,a1,a5
    3f1e:	8605                	srai	a2,a2,0x1
    3f20:	0586                	slli	a1,a1,0x1
    3f22:	e211                	bnez	a2,3f26 <UserToPMABufferCopy+0x10>
    3f24:	8082                	ret
    3f26:	00154783          	lbu	a5,1(a0) # 3001 <TIM_GetITStatus+0xd>
    3f2a:	00054703          	lbu	a4,0(a0)
    3f2e:	0591                	addi	a1,a1,4
    3f30:	07a2                	slli	a5,a5,0x8
    3f32:	8fd9                	or	a5,a5,a4
    3f34:	fef59e23          	sh	a5,-4(a1) # 1ffc <USBH_MainDeal+0x426>
    3f38:	0509                	addi	a0,a0,2
    3f3a:	167d                	addi	a2,a2,-1
    3f3c:	b7dd                	j	3f22 <UserToPMABufferCopy+0xc>

00003f3e <PMAToUserBufferCopy>:
    3f3e:	200037b7          	lui	a5,0x20003
    3f42:	0605                	addi	a2,a2,1
    3f44:	95be                	add	a1,a1,a5
    3f46:	8605                	srai	a2,a2,0x1
    3f48:	0586                	slli	a1,a1,0x1
    3f4a:	e211                	bnez	a2,3f4e <PMAToUserBufferCopy+0x10>
    3f4c:	8082                	ret
    3f4e:	419c                	lw	a5,0(a1)
    3f50:	0509                	addi	a0,a0,2
    3f52:	167d                	addi	a2,a2,-1
    3f54:	fef51f23          	sh	a5,-2(a0)
    3f58:	0591                	addi	a1,a1,4
    3f5a:	bfc5                	j	3f4a <PMAToUserBufferCopy+0xc>

00003f5c <SetBTABLE>:
    3f5c:	9961                	andi	a0,a0,-8
    3f5e:	0542                	slli	a0,a0,0x10
    3f60:	8141                	srli	a0,a0,0x10
    3f62:	400067b7          	lui	a5,0x40006
    3f66:	c4a7a823          	sw	a0,-944(a5) # 40005c50 <_eusrstack+0x20000c50>
    3f6a:	8082                	ret

00003f6c <SetEPType>:
    3f6c:	400067b7          	lui	a5,0x40006
    3f70:	c0078793          	addi	a5,a5,-1024 # 40005c00 <_eusrstack+0x20000c00>
    3f74:	050a                	slli	a0,a0,0x2
    3f76:	953e                	add	a0,a0,a5
    3f78:	411c                	lw	a5,0(a0)
    3f7a:	7765                	lui	a4,0xffff9
    3f7c:	98f70713          	addi	a4,a4,-1649 # ffff898f <_eusrstack+0xdfff398f>
    3f80:	8ff9                	and	a5,a5,a4
    3f82:	8ddd                	or	a1,a1,a5
    3f84:	05c2                	slli	a1,a1,0x10
    3f86:	81c1                	srli	a1,a1,0x10
    3f88:	c10c                	sw	a1,0(a0)
    3f8a:	8082                	ret

00003f8c <SetEPTxStatus>:
    3f8c:	400067b7          	lui	a5,0x40006
    3f90:	c0078793          	addi	a5,a5,-1024 # 40005c00 <_eusrstack+0x20000c00>
    3f94:	050a                	slli	a0,a0,0x2
    3f96:	953e                	add	a0,a0,a5
    3f98:	411c                	lw	a5,0(a0)
    3f9a:	7765                	lui	a4,0xffff9
    3f9c:	fbf70713          	addi	a4,a4,-65 # ffff8fbf <_eusrstack+0xdfff3fbf>
    3fa0:	8ff9                	and	a5,a5,a4
    3fa2:	07c2                	slli	a5,a5,0x10
    3fa4:	0105f713          	andi	a4,a1,16
    3fa8:	83c1                	srli	a5,a5,0x10
    3faa:	c319                	beqz	a4,3fb0 <SetEPTxStatus+0x24>
    3fac:	0107c793          	xori	a5,a5,16
    3fb0:	0205f713          	andi	a4,a1,32
    3fb4:	c319                	beqz	a4,3fba <SetEPTxStatus+0x2e>
    3fb6:	0207c793          	xori	a5,a5,32
    3fba:	7761                	lui	a4,0xffff8
    3fbc:	08070713          	addi	a4,a4,128 # ffff8080 <_eusrstack+0xdfff3080>
    3fc0:	8fd9                	or	a5,a5,a4
    3fc2:	07c2                	slli	a5,a5,0x10
    3fc4:	83c1                	srli	a5,a5,0x10
    3fc6:	c11c                	sw	a5,0(a0)
    3fc8:	4118                	lw	a4,0(a0)
    3fca:	03077713          	andi	a4,a4,48
    3fce:	feb71ce3          	bne	a4,a1,3fc6 <SetEPTxStatus+0x3a>
    3fd2:	8082                	ret

00003fd4 <SetEPRxValid>:
    3fd4:	400067b7          	lui	a5,0x40006
    3fd8:	c0078793          	addi	a5,a5,-1024 # 40005c00 <_eusrstack+0x20000c00>
    3fdc:	050a                	slli	a0,a0,0x2
    3fde:	953e                	add	a0,a0,a5
    3fe0:	411c                	lw	a5,0(a0)
    3fe2:	7771                	lui	a4,0xffffc
    3fe4:	f8f70713          	addi	a4,a4,-113 # ffffbf8f <_eusrstack+0xdfff6f8f>
    3fe8:	8ff9                	and	a5,a5,a4
    3fea:	07c2                	slli	a5,a5,0x10
    3fec:	670d                	lui	a4,0x3
    3fee:	83c1                	srli	a5,a5,0x10
    3ff0:	8fb9                	xor	a5,a5,a4
    3ff2:	7761                	lui	a4,0xffff8
    3ff4:	08070713          	addi	a4,a4,128 # ffff8080 <_eusrstack+0xdfff3080>
    3ff8:	8fd9                	or	a5,a5,a4
    3ffa:	07c2                	slli	a5,a5,0x10
    3ffc:	83c1                	srli	a5,a5,0x10
    3ffe:	66c1                	lui	a3,0x10
    4000:	c11c                	sw	a5,0(a0)
    4002:	16fd                	addi	a3,a3,-1
    4004:	660d                	lui	a2,0x3
    4006:	4118                	lw	a4,0(a0)
    4008:	8f75                	and	a4,a4,a3
    400a:	8f71                	and	a4,a4,a2
    400c:	00c71363          	bne	a4,a2,4012 <SetEPRxValid+0x3e>
    4010:	8082                	ret
    4012:	c11c                	sw	a5,0(a0)
    4014:	bfcd                	j	4006 <SetEPRxValid+0x32>

00004016 <ClearEP_KIND>:
    4016:	400067b7          	lui	a5,0x40006
    401a:	c0078793          	addi	a5,a5,-1024 # 40005c00 <_eusrstack+0x20000c00>
    401e:	050a                	slli	a0,a0,0x2
    4020:	953e                	add	a0,a0,a5
    4022:	411c                	lw	a5,0(a0)
    4024:	6705                	lui	a4,0x1
    4026:	e0f70713          	addi	a4,a4,-497 # e0f <TIM3_IRQHandler_Real+0xdf>
    402a:	8ff9                	and	a5,a5,a4
    402c:	7761                	lui	a4,0xffff8
    402e:	08070713          	addi	a4,a4,128 # ffff8080 <_eusrstack+0xdfff3080>
    4032:	8fd9                	or	a5,a5,a4
    4034:	07c2                	slli	a5,a5,0x10
    4036:	83c1                	srli	a5,a5,0x10
    4038:	c11c                	sw	a5,0(a0)
    403a:	8082                	ret

0000403c <Clear_Status_Out>:
    403c:	934fc2ef          	jal	t0,170 <__riscv_save_0>
    4040:	fd7ff0ef          	jal	ra,4016 <ClearEP_KIND>
    4044:	950fc06f          	j	194 <__riscv_restore_0>

00004048 <ClearDTOG_RX>:
    4048:	400067b7          	lui	a5,0x40006
    404c:	c0078793          	addi	a5,a5,-1024 # 40005c00 <_eusrstack+0x20000c00>
    4050:	050a                	slli	a0,a0,0x2
    4052:	953e                	add	a0,a0,a5
    4054:	4114                	lw	a3,0(a0)
    4056:	67c1                	lui	a5,0x10
    4058:	fff78713          	addi	a4,a5,-1 # ffff <_data_lma+0x9c6b>
    405c:	01169793          	slli	a5,a3,0x11
    4060:	0007dd63          	bgez	a5,407a <ClearDTOG_RX+0x32>
    4064:	411c                	lw	a5,0(a0)
    4066:	8ff9                	and	a5,a5,a4
    4068:	6705                	lui	a4,0x1
    406a:	f0f70713          	addi	a4,a4,-241 # f0f <USBH_EnumRootDevice+0x7f>
    406e:	8ff9                	and	a5,a5,a4
    4070:	6731                	lui	a4,0xc
    4072:	08070713          	addi	a4,a4,128 # c080 <_data_lma+0x5cec>
    4076:	8fd9                	or	a5,a5,a4
    4078:	c11c                	sw	a5,0(a0)
    407a:	8082                	ret

0000407c <ClearDTOG_TX>:
    407c:	400067b7          	lui	a5,0x40006
    4080:	c0078793          	addi	a5,a5,-1024 # 40005c00 <_eusrstack+0x20000c00>
    4084:	050a                	slli	a0,a0,0x2
    4086:	953e                	add	a0,a0,a5
    4088:	411c                	lw	a5,0(a0)
    408a:	0407f793          	andi	a5,a5,64
    408e:	cf91                	beqz	a5,40aa <ClearDTOG_TX+0x2e>
    4090:	411c                	lw	a5,0(a0)
    4092:	6741                	lui	a4,0x10
    4094:	177d                	addi	a4,a4,-1
    4096:	8ff9                	and	a5,a5,a4
    4098:	6705                	lui	a4,0x1
    409a:	f0f70713          	addi	a4,a4,-241 # f0f <USBH_EnumRootDevice+0x7f>
    409e:	8ff9                	and	a5,a5,a4
    40a0:	6721                	lui	a4,0x8
    40a2:	0c070713          	addi	a4,a4,192 # 80c0 <_data_lma+0x1d2c>
    40a6:	8fd9                	or	a5,a5,a4
    40a8:	c11c                	sw	a5,0(a0)
    40aa:	8082                	ret

000040ac <SetEPTxAddr>:
    40ac:	400067b7          	lui	a5,0x40006
    40b0:	c507a783          	lw	a5,-944(a5) # 40005c50 <_eusrstack+0x20000c50>
    40b4:	050e                	slli	a0,a0,0x3
    40b6:	8185                	srli	a1,a1,0x1
    40b8:	07c2                	slli	a5,a5,0x10
    40ba:	83c1                	srli	a5,a5,0x10
    40bc:	953e                	add	a0,a0,a5
    40be:	200037b7          	lui	a5,0x20003
    40c2:	953e                	add	a0,a0,a5
    40c4:	0506                	slli	a0,a0,0x1
    40c6:	0586                	slli	a1,a1,0x1
    40c8:	c10c                	sw	a1,0(a0)
    40ca:	8082                	ret

000040cc <SetEPRxAddr>:
    40cc:	400067b7          	lui	a5,0x40006
    40d0:	c507a783          	lw	a5,-944(a5) # 40005c50 <_eusrstack+0x20000c50>
    40d4:	050e                	slli	a0,a0,0x3
    40d6:	8185                	srli	a1,a1,0x1
    40d8:	07c2                	slli	a5,a5,0x10
    40da:	83c1                	srli	a5,a5,0x10
    40dc:	953e                	add	a0,a0,a5
    40de:	200037b7          	lui	a5,0x20003
    40e2:	0791                	addi	a5,a5,4
    40e4:	953e                	add	a0,a0,a5
    40e6:	0506                	slli	a0,a0,0x1
    40e8:	0586                	slli	a1,a1,0x1
    40ea:	c10c                	sw	a1,0(a0)
    40ec:	8082                	ret

000040ee <GetEPTxAddr>:
    40ee:	400067b7          	lui	a5,0x40006
    40f2:	c507a783          	lw	a5,-944(a5) # 40005c50 <_eusrstack+0x20000c50>
    40f6:	050e                	slli	a0,a0,0x3
    40f8:	07c2                	slli	a5,a5,0x10
    40fa:	83c1                	srli	a5,a5,0x10
    40fc:	953e                	add	a0,a0,a5
    40fe:	200037b7          	lui	a5,0x20003
    4102:	953e                	add	a0,a0,a5
    4104:	0506                	slli	a0,a0,0x1
    4106:	00055503          	lhu	a0,0(a0)
    410a:	8082                	ret

0000410c <GetEPRxAddr>:
    410c:	400067b7          	lui	a5,0x40006
    4110:	c507a783          	lw	a5,-944(a5) # 40005c50 <_eusrstack+0x20000c50>
    4114:	050e                	slli	a0,a0,0x3
    4116:	07c2                	slli	a5,a5,0x10
    4118:	83c1                	srli	a5,a5,0x10
    411a:	953e                	add	a0,a0,a5
    411c:	200037b7          	lui	a5,0x20003
    4120:	0791                	addi	a5,a5,4
    4122:	953e                	add	a0,a0,a5
    4124:	0506                	slli	a0,a0,0x1
    4126:	00055503          	lhu	a0,0(a0)
    412a:	8082                	ret

0000412c <SetEPTxCount>:
    412c:	400067b7          	lui	a5,0x40006
    4130:	c507a783          	lw	a5,-944(a5) # 40005c50 <_eusrstack+0x20000c50>
    4134:	050e                	slli	a0,a0,0x3
    4136:	07c2                	slli	a5,a5,0x10
    4138:	83c1                	srli	a5,a5,0x10
    413a:	953e                	add	a0,a0,a5
    413c:	200037b7          	lui	a5,0x20003
    4140:	0789                	addi	a5,a5,2
    4142:	953e                	add	a0,a0,a5
    4144:	0506                	slli	a0,a0,0x1
    4146:	c10c                	sw	a1,0(a0)
    4148:	8082                	ret

0000414a <SetEPRxCount>:
    414a:	400067b7          	lui	a5,0x40006
    414e:	c507a783          	lw	a5,-944(a5) # 40005c50 <_eusrstack+0x20000c50>
    4152:	050e                	slli	a0,a0,0x3
    4154:	07c2                	slli	a5,a5,0x10
    4156:	83c1                	srli	a5,a5,0x10
    4158:	953e                	add	a0,a0,a5
    415a:	200037b7          	lui	a5,0x20003
    415e:	0799                	addi	a5,a5,6
    4160:	953e                	add	a0,a0,a5
    4162:	03e00793          	li	a5,62
    4166:	0506                	slli	a0,a0,0x1
    4168:	00b7fe63          	bgeu	a5,a1,4184 <SetEPRxCount+0x3a>
    416c:	0055d793          	srli	a5,a1,0x5
    4170:	89fd                	andi	a1,a1,31
    4172:	e581                	bnez	a1,417a <SetEPRxCount+0x30>
    4174:	17fd                	addi	a5,a5,-1
    4176:	07c2                	slli	a5,a5,0x10
    4178:	83c1                	srli	a5,a5,0x10
    417a:	07aa                	slli	a5,a5,0xa
    417c:	6721                	lui	a4,0x8
    417e:	8fd9                	or	a5,a5,a4
    4180:	c11c                	sw	a5,0(a0)
    4182:	8082                	ret
    4184:	0015d793          	srli	a5,a1,0x1
    4188:	8985                	andi	a1,a1,1
    418a:	c191                	beqz	a1,418e <SetEPRxCount+0x44>
    418c:	0785                	addi	a5,a5,1
    418e:	07aa                	slli	a5,a5,0xa
    4190:	bfc5                	j	4180 <SetEPRxCount+0x36>

00004192 <ByteSwap>:
    4192:	00855793          	srli	a5,a0,0x8
    4196:	0ff57513          	andi	a0,a0,255
    419a:	0522                	slli	a0,a0,0x8
    419c:	8d5d                	or	a0,a0,a5
    419e:	8082                	ret

000041a0 <USB_SIL_Init>:
    41a0:	40006737          	lui	a4,0x40006
    41a4:	77f1                	lui	a5,0xffffc
    41a6:	c4072223          	sw	zero,-956(a4) # 40005c44 <_eusrstack+0x20000c44>
    41aa:	f0078793          	addi	a5,a5,-256 # ffffbf00 <_eusrstack+0xdfff6f00>
    41ae:	8ef19a23          	sh	a5,-1804(gp) # 200002cc <wInterrupt_Mask>
    41b2:	67b1                	lui	a5,0xc
    41b4:	f0078793          	addi	a5,a5,-256 # bf00 <_data_lma+0x5b6c>
    41b8:	c4f72023          	sw	a5,-960(a4)
    41bc:	4501                	li	a0,0
    41be:	8082                	ret

000041c0 <USB_SIL_Write>:
    41c0:	fb1fb2ef          	jal	t0,170 <__riscv_save_0>
    41c4:	8432                	mv	s0,a2
    41c6:	07f57493          	andi	s1,a0,127
    41ca:	8526                	mv	a0,s1
    41cc:	0442                	slli	s0,s0,0x10
    41ce:	892e                	mv	s2,a1
    41d0:	8041                	srli	s0,s0,0x10
    41d2:	f1dff0ef          	jal	ra,40ee <GetEPTxAddr>
    41d6:	8622                	mv	a2,s0
    41d8:	85aa                	mv	a1,a0
    41da:	854a                	mv	a0,s2
    41dc:	d3bff0ef          	jal	ra,3f16 <UserToPMABufferCopy>
    41e0:	8526                	mv	a0,s1
    41e2:	85a2                	mv	a1,s0
    41e4:	f49ff0ef          	jal	ra,412c <SetEPTxCount>
    41e8:	4501                	li	a0,0
    41ea:	fabfb06f          	j	194 <__riscv_restore_0>

000041ee <USBWakeUp_IRQHandler>:
    41ee:	2019                	jal	41f4 <USBWakeUp_IRQHandler_Real>
    41f0:	30200073          	mret

000041f4 <USBWakeUp_IRQHandler_Real>:
    41f4:	f7dfb2ef          	jal	t0,170 <__riscv_save_0>
    41f8:	00040537          	lui	a0,0x40
    41fc:	a33fe0ef          	jal	ra,2c2e <EXTI_ClearITPendingBit>
    4200:	f95fb06f          	j	194 <__riscv_restore_0>

00004204 <USB_LP_CAN1_RX0_IRQHandler>:
    4204:	2019                	jal	420a <USB_LP_CAN1_RX0_IRQHandler_Real>
    4206:	30200073          	mret

0000420a <USB_LP_CAN1_RX0_IRQHandler_Real>:
    420a:	f67fb2ef          	jal	t0,170 <__riscv_save_0>
    420e:	2405                	jal	442e <USB_Istr>
    4210:	f85fb06f          	j	194 <__riscv_restore_0>

00004214 <Set_USBConfig>:
    4214:	f5dfb2ef          	jal	t0,170 <__riscv_save_0>
    4218:	200007b7          	lui	a5,0x20000
    421c:	1d87a703          	lw	a4,472(a5) # 200001d8 <SystemCoreClock>
    4220:	089547b7          	lui	a5,0x8954
    4224:	40078793          	addi	a5,a5,1024 # 8954400 <_data_lma+0x894e06c>
    4228:	4509                	li	a0,2
    422a:	02f70063          	beq	a4,a5,424a <Set_USBConfig+0x36>
    422e:	05b8e7b7          	lui	a5,0x5b8e
    4232:	80078793          	addi	a5,a5,-2048 # 5b8d800 <_data_lma+0x5b8746c>
    4236:	4505                	li	a0,1
    4238:	00f70963          	beq	a4,a5,424a <Set_USBConfig+0x36>
    423c:	02dc77b7          	lui	a5,0x2dc7
    4240:	c0078793          	addi	a5,a5,-1024 # 2dc6c00 <_data_lma+0x2dc086c>
    4244:	00f71563          	bne	a4,a5,424e <Set_USBConfig+0x3a>
    4248:	4501                	li	a0,0
    424a:	bbffe0ef          	jal	ra,2e08 <RCC_USBCLKConfig>
    424e:	4585                	li	a1,1
    4250:	00800537          	lui	a0,0x800
    4254:	cd1fe0ef          	jal	ra,2f24 <RCC_APB1PeriphClockCmd>
    4258:	f3dfb06f          	j	194 <__riscv_restore_0>

0000425c <Enter_LowPowerMode>:
    425c:	f15fb2ef          	jal	t0,170 <__riscv_save_0>
    4260:	00006537          	lui	a0,0x6
    4264:	2a850513          	addi	a0,a0,680 # 62a8 <MySerNumInfo+0x18>
    4268:	777000ef          	jal	ra,51de <puts>
    426c:	9121c703          	lbu	a4,-1774(gp) # 200002ea <USBD_Sleep_Status>
    4270:	00276713          	ori	a4,a4,2
    4274:	90e18923          	sb	a4,-1774(gp) # 200002ea <USBD_Sleep_Status>
    4278:	9121c783          	lbu	a5,-1774(gp) # 200002ea <USBD_Sleep_Status>
    427c:	470d                	li	a4,3
    427e:	00f71463          	bne	a4,a5,4286 <Enter_LowPowerMode+0x2a>
    4282:	22b000ef          	jal	ra,4cac <MCU_Sleep_Wakeup_Operate>
    4286:	470d                	li	a4,3
    4288:	90e1ae23          	sw	a4,-1764(gp) # 200002f4 <bDeviceState>
    428c:	f09fb06f          	j	194 <__riscv_restore_0>

00004290 <Leave_LowPowerMode>:
    4290:	ee1fb2ef          	jal	t0,170 <__riscv_save_0>
    4294:	00006537          	lui	a0,0x6
    4298:	2c450513          	addi	a0,a0,708 # 62c4 <MySerNumInfo+0x34>
    429c:	743000ef          	jal	ra,51de <puts>
    42a0:	9121c783          	lbu	a5,-1774(gp) # 200002ea <USBD_Sleep_Status>
    42a4:	0fd7f793          	andi	a5,a5,253
    42a8:	90f18923          	sb	a5,-1774(gp) # 200002ea <USBD_Sleep_Status>
    42ac:	200017b7          	lui	a5,0x20001
    42b0:	3927c703          	lbu	a4,914(a5) # 20001392 <Device_Info+0xa>
    42b4:	c711                	beqz	a4,42c0 <Leave_LowPowerMode+0x30>
    42b6:	4715                	li	a4,5
    42b8:	90e1ae23          	sw	a4,-1764(gp) # 200002f4 <bDeviceState>
    42bc:	ed9fb06f          	j	194 <__riscv_restore_0>
    42c0:	4705                	li	a4,1
    42c2:	bfdd                	j	42b8 <Leave_LowPowerMode+0x28>

000042c4 <USB_Interrupts_Config>:
    42c4:	eadfb2ef          	jal	t0,170 <__riscv_save_0>
    42c8:	1101                	addi	sp,sp,-32
    42ca:	00040537          	lui	a0,0x40
    42ce:	961fe0ef          	jal	ra,2c2e <EXTI_ClearITPendingBit>
    42d2:	000407b7          	lui	a5,0x40
    42d6:	4405                	li	s0,1
    42d8:	c83e                	sw	a5,16(sp)
    42da:	0808                	addi	a0,sp,16
    42dc:	47c1                	li	a5,16
    42de:	cc3e                	sw	a5,24(sp)
    42e0:	ce22                	sw	s0,28(sp)
    42e2:	ca02                	sw	zero,20(sp)
    42e4:	8c5fe0ef          	jal	ra,2ba8 <EXTI_Init>
    42e8:	12400793          	li	a5,292
    42ec:	0028                	addi	a0,sp,8
    42ee:	00f11423          	sh	a5,8(sp)
    42f2:	c622                	sw	s0,12(sp)
    42f4:	00010523          	sb	zero,10(sp)
    42f8:	a59fe0ef          	jal	ra,2d50 <NVIC_Init>
    42fc:	03a00793          	li	a5,58
    4300:	0028                	addi	a0,sp,8
    4302:	00f11423          	sh	a5,8(sp)
    4306:	a4bfe0ef          	jal	ra,2d50 <NVIC_Init>
    430a:	6105                	addi	sp,sp,32
    430c:	e89fb06f          	j	194 <__riscv_restore_0>

00004310 <USB_Port_Set>:
    4310:	e61fb2ef          	jal	t0,170 <__riscv_save_0>
    4314:	84aa                	mv	s1,a0
    4316:	842e                	mv	s0,a1
    4318:	4511                	li	a0,4
    431a:	4585                	li	a1,1
    431c:	bebfe0ef          	jal	ra,2f06 <RCC_APB2PeriphClockCmd>
    4320:	ccb1                	beqz	s1,437c <USB_Port_Set+0x6c>
    4322:	400066b7          	lui	a3,0x40006
    4326:	c406a783          	lw	a5,-960(a3) # 40005c40 <_eusrstack+0x20000c40>
    432a:	6741                	lui	a4,0x10
    432c:	1775                	addi	a4,a4,-3
    432e:	8ff9                	and	a5,a5,a4
    4330:	c4f6a023          	sw	a5,-960(a3)
    4334:	400117b7          	lui	a5,0x40011
    4338:	8047a703          	lw	a4,-2044(a5) # 40010804 <_eusrstack+0x2000b804>
    433c:	fff016b7          	lui	a3,0xfff01
    4340:	16fd                	addi	a3,a3,-1
    4342:	8f75                	and	a4,a4,a3
    4344:	80e7a223          	sw	a4,-2044(a5)
    4348:	80c7a703          	lw	a4,-2036(a5)
    434c:	76f9                	lui	a3,0xffffe
    434e:	7ff68693          	addi	a3,a3,2047 # ffffe7ff <_eusrstack+0xdfff97ff>
    4352:	8f75                	and	a4,a4,a3
    4354:	80e7a623          	sw	a4,-2036(a5)
    4358:	8047a703          	lw	a4,-2044(a5)
    435c:	000446b7          	lui	a3,0x44
    4360:	8f55                	or	a4,a4,a3
    4362:	80e7a223          	sw	a4,-2044(a5)
    4366:	40024737          	lui	a4,0x40024
    436a:	80072783          	lw	a5,-2048(a4) # 40023800 <_eusrstack+0x2001e800>
    436e:	c821                	beqz	s0,43be <USB_Port_Set+0xae>
    4370:	0027e793          	ori	a5,a5,2
    4374:	80f72023          	sw	a5,-2048(a4)
    4378:	e1dfb06f          	j	194 <__riscv_restore_0>
    437c:	40006737          	lui	a4,0x40006
    4380:	c4072783          	lw	a5,-960(a4) # 40005c40 <_eusrstack+0x20000c40>
    4384:	fff016b7          	lui	a3,0xfff01
    4388:	16fd                	addi	a3,a3,-1
    438a:	0027e793          	ori	a5,a5,2
    438e:	07c2                	slli	a5,a5,0x10
    4390:	83c1                	srli	a5,a5,0x10
    4392:	c4f72023          	sw	a5,-960(a4)
    4396:	400117b7          	lui	a5,0x40011
    439a:	8047a703          	lw	a4,-2044(a5) # 40010804 <_eusrstack+0x2000b804>
    439e:	8f75                	and	a4,a4,a3
    43a0:	80e7a223          	sw	a4,-2044(a5)
    43a4:	80c7a703          	lw	a4,-2036(a5)
    43a8:	76f9                	lui	a3,0xffffe
    43aa:	7ff68693          	addi	a3,a3,2047 # ffffe7ff <_eusrstack+0xdfff97ff>
    43ae:	8f75                	and	a4,a4,a3
    43b0:	80e7a623          	sw	a4,-2036(a5)
    43b4:	8047a703          	lw	a4,-2044(a5)
    43b8:	000336b7          	lui	a3,0x33
    43bc:	b755                	j	4360 <USB_Port_Set+0x50>
    43be:	9bf5                	andi	a5,a5,-3
    43c0:	bf55                	j	4374 <USB_Port_Set+0x64>

000043c2 <EP1_IN_Callback>:
    43c2:	8e018d23          	sb	zero,-1798(gp) # 200002d2 <USBD_Endp1_Busy>
    43c6:	8082                	ret

000043c8 <EP2_IN_Callback>:
    43c8:	8e018da3          	sb	zero,-1797(gp) # 200002d3 <USBD_Endp2_Busy>
    43cc:	8082                	ret

000043ce <USBD_ENDPx_DataUp>:
    43ce:	da3fb2ef          	jal	t0,170 <__riscv_save_0>
    43d2:	4905                	li	s2,1
    43d4:	842a                	mv	s0,a0
    43d6:	03251663          	bne	a0,s2,4402 <USBD_ENDPx_DataUp+0x34>
    43da:	8fa18493          	addi	s1,gp,-1798 # 200002d2 <USBD_Endp1_Busy>
    43de:	0004c783          	lbu	a5,0(s1)
    43e2:	ef89                	bnez	a5,43fc <USBD_ENDPx_DataUp+0x2e>
    43e4:	08100513          	li	a0,129
    43e8:	dd9ff0ef          	jal	ra,41c0 <USB_SIL_Write>
    43ec:	03000593          	li	a1,48
    43f0:	4505                	li	a0,1
    43f2:	00848023          	sb	s0,0(s1)
    43f6:	b97ff0ef          	jal	ra,3f8c <SetEPTxStatus>
    43fa:	4401                	li	s0,0
    43fc:	8522                	mv	a0,s0
    43fe:	d97fb06f          	j	194 <__riscv_restore_0>
    4402:	4789                	li	a5,2
    4404:	02f51363          	bne	a0,a5,442a <USBD_ENDPx_DataUp+0x5c>
    4408:	8fb18493          	addi	s1,gp,-1797 # 200002d3 <USBD_Endp2_Busy>
    440c:	0004c403          	lbu	s0,0(s1)
    4410:	ec09                	bnez	s0,442a <USBD_ENDPx_DataUp+0x5c>
    4412:	08200513          	li	a0,130
    4416:	dabff0ef          	jal	ra,41c0 <USB_SIL_Write>
    441a:	03000593          	li	a1,48
    441e:	4509                	li	a0,2
    4420:	01248023          	sb	s2,0(s1)
    4424:	b69ff0ef          	jal	ra,3f8c <SetEPTxStatus>
    4428:	bfd1                	j	43fc <USBD_ENDPx_DataUp+0x2e>
    442a:	4405                	li	s0,1
    442c:	bfc1                	j	43fc <USBD_ENDPx_DataUp+0x2e>

0000442e <USB_Istr>:
    442e:	d43fb2ef          	jal	t0,170 <__riscv_save_0>
    4432:	40006837          	lui	a6,0x40006
    4436:	c5082703          	lw	a4,-944(a6) # 40005c50 <_eusrstack+0x20000c50>
    443a:	65c1                	lui	a1,0x10
    443c:	fff58513          	addi	a0,a1,-1 # ffff <_data_lma+0x9c6b>
    4440:	8fc1d683          	lhu	a3,-1796(gp) # 200002d4 <Ep0RxBlks>
    4444:	200037b7          	lui	a5,0x20003
    4448:	8f69                	and	a4,a4,a0
    444a:	00678613          	addi	a2,a5,6 # 20003006 <_ebss+0x1c3e>
    444e:	9732                	add	a4,a4,a2
    4450:	0706                	slli	a4,a4,0x1
    4452:	4318                	lw	a4,0(a4)
    4454:	c0058593          	addi	a1,a1,-1024
    4458:	1101                	addi	sp,sp,-32
    445a:	8df9                	and	a1,a1,a4
    445c:	00d58c63          	beq	a1,a3,4474 <USB_Istr+0x46>
    4460:	c5082783          	lw	a5,-944(a6)
    4464:	c006f693          	andi	a3,a3,-1024
    4468:	8fe9                	and	a5,a5,a0
    446a:	97b2                	add	a5,a5,a2
    446c:	0786                	slli	a5,a5,0x1
    446e:	4398                	lw	a4,0(a5)
    4470:	8ed9                	or	a3,a3,a4
    4472:	c394                	sw	a3,0(a5)
    4474:	400066b7          	lui	a3,0x40006
    4478:	c446a783          	lw	a5,-956(a3) # 40005c44 <_eusrstack+0x20000c44>
    447c:	90818713          	addi	a4,gp,-1784 # 200002e0 <wIstr>
    4480:	07c2                	slli	a5,a5,0x10
    4482:	83c1                	srli	a5,a5,0x10
    4484:	00f71023          	sh	a5,0(a4)
    4488:	00075703          	lhu	a4,0(a4)
    448c:	8f41d783          	lhu	a5,-1804(gp) # 200002cc <wInterrupt_Mask>
    4490:	90818413          	addi	s0,gp,-1784 # 200002e0 <wIstr>
    4494:	8f7d                	and	a4,a4,a5
    4496:	20077713          	andi	a4,a4,512
    449a:	cf19                	beqz	a4,44b8 <USB_Istr+0x8a>
    449c:	6741                	lui	a4,0x10
    449e:	dff70713          	addi	a4,a4,-513 # fdff <_data_lma+0x9a6b>
    44a2:	c4e6a223          	sw	a4,-956(a3)
    44a6:	8fe18693          	addi	a3,gp,-1794 # 200002d6 <bIntPackSOF>
    44aa:	0006c703          	lbu	a4,0(a3)
    44ae:	0705                	addi	a4,a4,1
    44b0:	0ff77713          	andi	a4,a4,255
    44b4:	00e68023          	sb	a4,0(a3)
    44b8:	00045703          	lhu	a4,0(s0)
    44bc:	8ff9                	and	a5,a5,a4
    44be:	07c2                	slli	a5,a5,0x10
    44c0:	87c1                	srai	a5,a5,0x10
    44c2:	0007d463          	bgez	a5,44ca <USB_Istr+0x9c>
    44c6:	e6cff0ef          	jal	ra,3b32 <CTR_LP>
    44ca:	00045783          	lhu	a5,0(s0)
    44ce:	8f41d703          	lhu	a4,-1804(gp) # 200002cc <wInterrupt_Mask>
    44d2:	8ff9                	and	a5,a5,a4
    44d4:	4007f793          	andi	a5,a5,1024
    44d8:	cf89                	beqz	a5,44f2 <USB_Istr+0xc4>
    44da:	67c1                	lui	a5,0x10
    44dc:	bff78793          	addi	a5,a5,-1025 # fbff <_data_lma+0x986b>
    44e0:	40006737          	lui	a4,0x40006
    44e4:	c4f72223          	sw	a5,-956(a4) # 40005c44 <_eusrstack+0x20000c44>
    44e8:	200007b7          	lui	a5,0x20000
    44ec:	1247a783          	lw	a5,292(a5) # 20000124 <Device_Property+0x4>
    44f0:	9782                	jalr	a5
    44f2:	00045703          	lhu	a4,0(s0)
    44f6:	8f41d783          	lhu	a5,-1804(gp) # 200002cc <wInterrupt_Mask>
    44fa:	8f7d                	and	a4,a4,a5
    44fc:	01271693          	slli	a3,a4,0x12
    4500:	0006d863          	bgez	a3,4510 <USB_Istr+0xe2>
    4504:	6739                	lui	a4,0xe
    4506:	400066b7          	lui	a3,0x40006
    450a:	177d                	addi	a4,a4,-1
    450c:	c4e6a223          	sw	a4,-956(a3) # 40005c44 <_eusrstack+0x20000c44>
    4510:	00045703          	lhu	a4,0(s0)
    4514:	8ff9                	and	a5,a5,a4
    4516:	01379713          	slli	a4,a5,0x13
    451a:	00075a63          	bgez	a4,452e <USB_Istr+0x100>
    451e:	67bd                	lui	a5,0xf
    4520:	40006737          	lui	a4,0x40006
    4524:	17fd                	addi	a5,a5,-1
    4526:	c4f72223          	sw	a5,-956(a4) # 40005c44 <_eusrstack+0x20000c44>
    452a:	4501                	li	a0,0
    452c:	2559                	jal	4bb2 <Resume>
    452e:	8f41d703          	lhu	a4,-1804(gp) # 200002cc <wInterrupt_Mask>
    4532:	00045783          	lhu	a5,0(s0)
    4536:	8ff9                	and	a5,a5,a4
    4538:	01479713          	slli	a4,a5,0x14
    453c:	00075e63          	bgez	a4,4558 <USB_Istr+0x12a>
    4540:	81c1a783          	lw	a5,-2020(gp) # 200001f4 <fSuspendEnabled>
    4544:	10078063          	beqz	a5,4644 <USB_Istr+0x216>
    4548:	2341                	jal	4ac8 <Suspend>
    454a:	67bd                	lui	a5,0xf
    454c:	40006737          	lui	a4,0x40006
    4550:	7ff78793          	addi	a5,a5,2047 # f7ff <_data_lma+0x946b>
    4554:	c4f72223          	sw	a5,-956(a4) # 40005c44 <_eusrstack+0x20000c44>
    4558:	00045783          	lhu	a5,0(s0)
    455c:	8f41d703          	lhu	a4,-1804(gp) # 200002cc <wInterrupt_Mask>
    4560:	8ff9                	and	a5,a5,a4
    4562:	1007f793          	andi	a5,a5,256
    4566:	cfe1                	beqz	a5,463e <USB_Istr+0x210>
    4568:	67c1                	lui	a5,0x10
    456a:	40006737          	lui	a4,0x40006
    456e:	eff78693          	addi	a3,a5,-257 # feff <_data_lma+0x9b6b>
    4572:	c4d72223          	sw	a3,-956(a4) # 40005c44 <_eusrstack+0x20000c44>
    4576:	c4872603          	lw	a2,-952(a4)
    457a:	90018693          	addi	a3,gp,-1792 # 200002d8 <esof_counter>
    457e:	01061593          	slli	a1,a2,0x10
    4582:	0a05da63          	bgez	a1,4636 <USB_Istr+0x208>
    4586:	4290                	lw	a2,0(a3)
    4588:	0605                	addi	a2,a2,1
    458a:	c290                	sw	a2,0(a3)
    458c:	428c                	lw	a1,0(a3)
    458e:	460d                	li	a2,3
    4590:	0ab67563          	bgeu	a2,a1,463a <USB_Istr+0x20c>
    4594:	c4072603          	lw	a2,-960(a4)
    4598:	17fd                	addi	a5,a5,-1
    459a:	8a21                	andi	a2,a2,8
    459c:	ee59                	bnez	a2,463a <USB_Istr+0x20c>
    459e:	c4072603          	lw	a2,-960(a4)
    45a2:	90418593          	addi	a1,gp,-1788 # 200002dc <wCNTR>
    45a6:	8e7d                	and	a2,a2,a5
    45a8:	40006537          	lui	a0,0x40006
    45ac:	c190                	sw	a2,0(a1)
    45ae:	90418713          	addi	a4,gp,-1788 # 200002dc <wCNTR>
    45b2:	4601                	li	a2,0
    45b4:	c0050313          	addi	t1,a0,-1024 # 40005c00 <_eusrstack+0x20000c00>
    45b8:	48a1                	li	a7,8
    45ba:	00261593          	slli	a1,a2,0x2
    45be:	00658833          	add	a6,a1,t1
    45c2:	00082803          	lw	a6,0(a6)
    45c6:	1000                	addi	s0,sp,32
    45c8:	95a2                	add	a1,a1,s0
    45ca:	00f87833          	and	a6,a6,a5
    45ce:	ff05a023          	sw	a6,-32(a1)
    45d2:	0605                	addi	a2,a2,1
    45d4:	ff1613e3          	bne	a2,a7,45ba <USB_Istr+0x18c>
    45d8:	4310                	lw	a2,0(a4)
    45da:	00166613          	ori	a2,a2,1
    45de:	c310                	sw	a2,0(a4)
    45e0:	4310                	lw	a2,0(a4)
    45e2:	8e7d                	and	a2,a2,a5
    45e4:	c4c52023          	sw	a2,-960(a0)
    45e8:	4310                	lw	a2,0(a4)
    45ea:	9a79                	andi	a2,a2,-2
    45ec:	c310                	sw	a2,0(a4)
    45ee:	4318                	lw	a4,0(a4)
    45f0:	8ff9                	and	a5,a5,a4
    45f2:	c4f52023          	sw	a5,-960(a0)
    45f6:	40006737          	lui	a4,0x40006
    45fa:	c4472783          	lw	a5,-956(a4) # 40005c44 <_eusrstack+0x20000c44>
    45fe:	4007f793          	andi	a5,a5,1024
    4602:	dfe5                	beqz	a5,45fa <USB_Istr+0x1cc>
    4604:	67c1                	lui	a5,0x10
    4606:	bff78793          	addi	a5,a5,-1025 # fbff <_data_lma+0x986b>
    460a:	40006537          	lui	a0,0x40006
    460e:	65c1                	lui	a1,0x10
    4610:	c4f72223          	sw	a5,-956(a4)
    4614:	c0050513          	addi	a0,a0,-1024 # 40005c00 <_eusrstack+0x20000c00>
    4618:	4781                	li	a5,0
    461a:	15fd                	addi	a1,a1,-1
    461c:	4821                	li	a6,8
    461e:	00279713          	slli	a4,a5,0x2
    4622:	1010                	addi	a2,sp,32
    4624:	963a                	add	a2,a2,a4
    4626:	fe062603          	lw	a2,-32(a2) # 2fe0 <TIM_ITConfig+0x2>
    462a:	972a                	add	a4,a4,a0
    462c:	0785                	addi	a5,a5,1
    462e:	8e6d                	and	a2,a2,a1
    4630:	c310                	sw	a2,0(a4)
    4632:	ff0796e3          	bne	a5,a6,461e <USB_Istr+0x1f0>
    4636:	0006a023          	sw	zero,0(a3)
    463a:	451d                	li	a0,7
    463c:	2b9d                	jal	4bb2 <Resume>
    463e:	6105                	addi	sp,sp,32
    4640:	b55fb06f          	j	194 <__riscv_restore_0>
    4644:	4509                	li	a0,2
    4646:	23b5                	jal	4bb2 <Resume>
    4648:	b709                	j	454a <USB_Istr+0x11c>

0000464a <USBD_SetConfiguration>:
    464a:	200017b7          	lui	a5,0x20001
    464e:	3927c783          	lbu	a5,914(a5) # 20001392 <Device_Info+0xa>
    4652:	c781                	beqz	a5,465a <USBD_SetConfiguration+0x10>
    4654:	4715                	li	a4,5
    4656:	90e1ae23          	sw	a4,-1764(gp) # 200002f4 <bDeviceState>
    465a:	8082                	ret

0000465c <USBD_SetDeviceAddress>:
    465c:	4711                	li	a4,4
    465e:	90e1ae23          	sw	a4,-1764(gp) # 200002f4 <bDeviceState>
    4662:	8082                	ret

00004664 <USBD_SetDeviceFeature>:
    4664:	91218793          	addi	a5,gp,-1774 # 200002ea <USBD_Sleep_Status>
    4668:	0007c703          	lbu	a4,0(a5)
    466c:	00176713          	ori	a4,a4,1
    4670:	00e78023          	sb	a4,0(a5)
    4674:	8082                	ret

00004676 <USBD_ClearFeature>:
    4676:	91218793          	addi	a5,gp,-1774 # 200002ea <USBD_Sleep_Status>
    467a:	0007c703          	lbu	a4,0(a5)
    467e:	0fe77713          	andi	a4,a4,254
    4682:	00e78023          	sb	a4,0(a5)
    4686:	8082                	ret

00004688 <USBD_Status_In>:
    4688:	8082                	ret

0000468a <USBD_Get_Interface_Setting>:
    468a:	e591                	bnez	a1,4696 <USBD_Get_Interface_Setting+0xc>
    468c:	4785                	li	a5,1
    468e:	00a7b533          	sltu	a0,a5,a0
    4692:	0506                	slli	a0,a0,0x1
    4694:	8082                	ret
    4696:	4509                	li	a0,2
    4698:	8082                	ret

0000469a <USBD_Data_Setup>:
    469a:	8e81a783          	lw	a5,-1816(gp) # 200002c0 <pInformation>
    469e:	4705                	li	a4,1
    46a0:	0007c683          	lbu	a3,0(a5)
    46a4:	07f6f693          	andi	a3,a3,127
    46a8:	04e69063          	bne	a3,a4,46e8 <USBD_Data_Setup+0x4e>
    46ac:	0027c703          	lbu	a4,2(a5)
    46b0:	02200693          	li	a3,34
    46b4:	02d70563          	beq	a4,a3,46de <USBD_Data_Setup+0x44>
    46b8:	02100693          	li	a3,33
    46bc:	4509                	li	a0,2
    46be:	08d71663          	bne	a4,a3,474a <USBD_Data_Setup+0xb0>
    46c2:	00005737          	lui	a4,0x5
    46c6:	a5670713          	addi	a4,a4,-1450 # 4a56 <USBD_GetHidDescriptor>
    46ca:	aa7fb2ef          	jal	t0,170 <__riscv_save_0>
    46ce:	00079923          	sh	zero,18(a5)
    46d2:	cf98                	sw	a4,24(a5)
    46d4:	4501                	li	a0,0
    46d6:	9702                	jalr	a4
    46d8:	4501                	li	a0,0
    46da:	abbfb06f          	j	194 <__riscv_restore_0>
    46de:	00005737          	lui	a4,0x5
    46e2:	a2c70713          	addi	a4,a4,-1492 # 4a2c <USBD_GetReportDescriptor>
    46e6:	b7d5                	j	46ca <USBD_Data_Setup+0x30>
    46e8:	02100613          	li	a2,33
    46ec:	4501                	li	a0,0
    46ee:	04c69e63          	bne	a3,a2,474a <USBD_Data_Setup+0xb0>
    46f2:	0017c683          	lbu	a3,1(a5)
    46f6:	04e68a63          	beq	a3,a4,474a <USBD_Data_Setup+0xb0>
    46fa:	4609                	li	a2,2
    46fc:	00c69a63          	bne	a3,a2,4710 <USBD_Data_Setup+0x76>
    4700:	00e79823          	sh	a4,16(a5)
    4704:	00004737          	lui	a4,0x4
    4708:	7b670713          	addi	a4,a4,1974 # 47b6 <HID_Get_Idle>
    470c:	cf98                	sw	a4,24(a5)
    470e:	8082                	ret
    4710:	460d                	li	a2,3
    4712:	00c69963          	bne	a3,a2,4724 <USBD_Data_Setup+0x8a>
    4716:	00e79823          	sh	a4,16(a5)
    471a:	00004737          	lui	a4,0x4
    471e:	7ce70713          	addi	a4,a4,1998 # 47ce <HID_Get_Protocol>
    4722:	b7ed                	j	470c <USBD_Data_Setup+0x72>
    4724:	45a5                	li	a1,9
    4726:	02b69063          	bne	a3,a1,4746 <USBD_Data_Setup+0xac>
    472a:	0067d683          	lhu	a3,6(a5)
    472e:	00d76c63          	bltu	a4,a3,4746 <USBD_Data_Setup+0xac>
    4732:	00004737          	lui	a4,0x4
    4736:	7a070713          	addi	a4,a4,1952 # 47a0 <HID_Set_Report>
    473a:	00d79823          	sh	a3,16(a5)
    473e:	cf98                	sw	a4,24(a5)
    4740:	00c78423          	sb	a2,8(a5)
    4744:	8082                	ret
    4746:	4509                	li	a0,2
    4748:	8082                	ret
    474a:	8082                	ret

0000474c <USBD_NoData_Setup>:
    474c:	8e81a703          	lw	a4,-1816(gp) # 200002c0 <pInformation>
    4750:	02100693          	li	a3,33
    4754:	4501                	li	a0,0
    4756:	00074783          	lbu	a5,0(a4)
    475a:	07f7f793          	andi	a5,a5,127
    475e:	04d79063          	bne	a5,a3,479e <USBD_NoData_Setup+0x52>
    4762:	00174783          	lbu	a5,1(a4)
    4766:	4629                	li	a2,10
    4768:	00574683          	lbu	a3,5(a4)
    476c:	00c79d63          	bne	a5,a2,4786 <USBD_NoData_Setup+0x3a>
    4770:	4789                	li	a5,2
    4772:	02d7e563          	bltu	a5,a3,479c <USBD_NoData_Setup+0x50>
    4776:	00274703          	lbu	a4,2(a4)
    477a:	90c18793          	addi	a5,gp,-1780 # 200002e4 <HID_Idle_Value>
    477e:	97b6                	add	a5,a5,a3
    4780:	00e78023          	sb	a4,0(a5)
    4784:	8082                	ret
    4786:	462d                	li	a2,11
    4788:	00c79a63          	bne	a5,a2,479c <USBD_NoData_Setup+0x50>
    478c:	4789                	li	a5,2
    478e:	00d7e763          	bltu	a5,a3,479c <USBD_NoData_Setup+0x50>
    4792:	00374703          	lbu	a4,3(a4)
    4796:	91018793          	addi	a5,gp,-1776 # 200002e8 <HID_Protocol_Value>
    479a:	b7d5                	j	477e <USBD_NoData_Setup+0x32>
    479c:	4509                	li	a0,2
    479e:	8082                	ret

000047a0 <HID_Set_Report>:
    47a0:	8e81a783          	lw	a5,-1816(gp) # 200002c0 <pInformation>
    47a4:	4501                	li	a0,0
    47a6:	0057c703          	lbu	a4,5(a5)
    47aa:	4785                	li	a5,1
    47ac:	00e7e463          	bltu	a5,a4,47b4 <HID_Set_Report+0x14>
    47b0:	92418513          	addi	a0,gp,-1756 # 200002fc <KB_LED_Cur_Status>
    47b4:	8082                	ret

000047b6 <HID_Get_Idle>:
    47b6:	8e81a783          	lw	a5,-1816(gp) # 200002c0 <pInformation>
    47ba:	4709                	li	a4,2
    47bc:	4501                	li	a0,0
    47be:	0057c783          	lbu	a5,5(a5)
    47c2:	00f76563          	bltu	a4,a5,47cc <HID_Get_Idle+0x16>
    47c6:	90c18513          	addi	a0,gp,-1780 # 200002e4 <HID_Idle_Value>
    47ca:	953e                	add	a0,a0,a5
    47cc:	8082                	ret

000047ce <HID_Get_Protocol>:
    47ce:	8e81a783          	lw	a5,-1816(gp) # 200002c0 <pInformation>
    47d2:	4709                	li	a4,2
    47d4:	4501                	li	a0,0
    47d6:	0057c783          	lbu	a5,5(a5)
    47da:	00f76563          	bltu	a4,a5,47e4 <HID_Get_Protocol+0x16>
    47de:	91018513          	addi	a0,gp,-1776 # 200002e8 <HID_Protocol_Value>
    47e2:	953e                	add	a0,a0,a5
    47e4:	8082                	ret

000047e6 <USBD_init>:
    47e6:	98bfb2ef          	jal	t0,170 <__riscv_save_0>
    47ea:	8e81a783          	lw	a5,-1816(gp) # 200002c0 <pInformation>
    47ee:	00078523          	sb	zero,10(a5)
    47f2:	2475                	jal	4a9e <PowerOn>
    47f4:	400067b7          	lui	a5,0x40006
    47f8:	6685                	lui	a3,0x1
    47fa:	40006637          	lui	a2,0x40006
    47fe:	c0078793          	addi	a5,a5,-1024 # 40005c00 <_eusrstack+0x20000c00>
    4802:	f0f68693          	addi	a3,a3,-241 # f0f <USBH_EnumRootDevice+0x7f>
    4806:	c2060593          	addi	a1,a2,-992 # 40005c20 <_eusrstack+0x20000c20>
    480a:	4398                	lw	a4,0(a5)
    480c:	0791                	addi	a5,a5,4
    480e:	8f75                	and	a4,a4,a3
    4810:	fee7ae23          	sw	a4,-4(a5)
    4814:	feb79be3          	bne	a5,a1,480a <USBD_init+0x24>
    4818:	0ff00793          	li	a5,255
    481c:	c4f62223          	sw	a5,-956(a2)
    4820:	981ff0ef          	jal	ra,41a0 <USB_SIL_Init>
    4824:	4581                	li	a1,0
    4826:	4501                	li	a0,0
    4828:	9001ae23          	sw	zero,-1764(gp) # 200002f4 <bDeviceState>
    482c:	ae5ff0ef          	jal	ra,4310 <USB_Port_Set>
    4830:	4551                	li	a0,20
    4832:	2389                	jal	4d74 <Delay_Ms>
    4834:	4585                	li	a1,1
    4836:	4505                	li	a0,1
    4838:	ad9ff0ef          	jal	ra,4310 <USB_Port_Set>
    483c:	959fb06f          	j	194 <__riscv_restore_0>

00004840 <USBD_Reset>:
    4840:	931fb2ef          	jal	t0,170 <__riscv_save_0>
    4844:	8e81a783          	lw	a5,-1816(gp) # 200002c0 <pInformation>
    4848:	4501                	li	a0,0
    484a:	00079523          	sh	zero,10(a5)
    484e:	f0eff0ef          	jal	ra,3f5c <SetBTABLE>
    4852:	20000593          	li	a1,512
    4856:	4501                	li	a0,0
    4858:	f14ff0ef          	jal	ra,3f6c <SetEPType>
    485c:	45c1                	li	a1,16
    485e:	4501                	li	a0,0
    4860:	f2cff0ef          	jal	ra,3f8c <SetEPTxStatus>
    4864:	04000593          	li	a1,64
    4868:	4501                	li	a0,0
    486a:	863ff0ef          	jal	ra,40cc <SetEPRxAddr>
    486e:	08000593          	li	a1,128
    4872:	4501                	li	a0,0
    4874:	839ff0ef          	jal	ra,40ac <SetEPTxAddr>
    4878:	4501                	li	a0,0
    487a:	fc2ff0ef          	jal	ra,403c <Clear_Status_Out>
    487e:	200007b7          	lui	a5,0x20000
    4882:	14c7c583          	lbu	a1,332(a5) # 2000014c <Device_Property+0x2c>
    4886:	4501                	li	a0,0
    4888:	8c3ff0ef          	jal	ra,414a <SetEPRxCount>
    488c:	4501                	li	a0,0
    488e:	f46ff0ef          	jal	ra,3fd4 <SetEPRxValid>
    4892:	40006737          	lui	a4,0x40006
    4896:	c0072603          	lw	a2,-1024(a4) # 40005c00 <_eusrstack+0x20000c00>
    489a:	67c1                	lui	a5,0x10
    489c:	fff78693          	addi	a3,a5,-1 # ffff <_data_lma+0x9c6b>
    48a0:	01161793          	slli	a5,a2,0x11
    48a4:	0007df63          	bgez	a5,48c2 <USBD_Reset+0x82>
    48a8:	c0072783          	lw	a5,-1024(a4)
    48ac:	8ff5                	and	a5,a5,a3
    48ae:	6685                	lui	a3,0x1
    48b0:	f0f68693          	addi	a3,a3,-241 # f0f <USBH_EnumRootDevice+0x7f>
    48b4:	8ff5                	and	a5,a5,a3
    48b6:	66b1                	lui	a3,0xc
    48b8:	08068693          	addi	a3,a3,128 # c080 <_data_lma+0x5cec>
    48bc:	8fd5                	or	a5,a5,a3
    48be:	c0f72023          	sw	a5,-1024(a4)
    48c2:	40006737          	lui	a4,0x40006
    48c6:	c0072783          	lw	a5,-1024(a4) # 40005c00 <_eusrstack+0x20000c00>
    48ca:	0407f793          	andi	a5,a5,64
    48ce:	c385                	beqz	a5,48ee <USBD_Reset+0xae>
    48d0:	c0072783          	lw	a5,-1024(a4)
    48d4:	66c1                	lui	a3,0x10
    48d6:	16fd                	addi	a3,a3,-1
    48d8:	8ff5                	and	a5,a5,a3
    48da:	6685                	lui	a3,0x1
    48dc:	f0f68693          	addi	a3,a3,-241 # f0f <USBH_EnumRootDevice+0x7f>
    48e0:	8ff5                	and	a5,a5,a3
    48e2:	66a1                	lui	a3,0x8
    48e4:	0c068693          	addi	a3,a3,192 # 80c0 <_data_lma+0x1d2c>
    48e8:	8fd5                	or	a5,a5,a3
    48ea:	c0f72023          	sw	a5,-1024(a4)
    48ee:	60000593          	li	a1,1536
    48f2:	4505                	li	a0,1
    48f4:	e78ff0ef          	jal	ra,3f6c <SetEPType>
    48f8:	0c000593          	li	a1,192
    48fc:	4505                	li	a0,1
    48fe:	faeff0ef          	jal	ra,40ac <SetEPTxAddr>
    4902:	02000593          	li	a1,32
    4906:	4505                	li	a0,1
    4908:	e84ff0ef          	jal	ra,3f8c <SetEPTxStatus>
    490c:	40006737          	lui	a4,0x40006
    4910:	c0472783          	lw	a5,-1020(a4) # 40005c04 <_eusrstack+0x20000c04>
    4914:	0407f793          	andi	a5,a5,64
    4918:	c385                	beqz	a5,4938 <USBD_Reset+0xf8>
    491a:	c0472783          	lw	a5,-1020(a4)
    491e:	66c1                	lui	a3,0x10
    4920:	16fd                	addi	a3,a3,-1
    4922:	8ff5                	and	a5,a5,a3
    4924:	6685                	lui	a3,0x1
    4926:	f0f68693          	addi	a3,a3,-241 # f0f <USBH_EnumRootDevice+0x7f>
    492a:	8ff5                	and	a5,a5,a3
    492c:	66a1                	lui	a3,0x8
    492e:	0c068693          	addi	a3,a3,192 # 80c0 <_data_lma+0x1d2c>
    4932:	8fd5                	or	a5,a5,a3
    4934:	c0f72223          	sw	a5,-1020(a4)
    4938:	40006737          	lui	a4,0x40006
    493c:	c0472603          	lw	a2,-1020(a4) # 40005c04 <_eusrstack+0x20000c04>
    4940:	67c1                	lui	a5,0x10
    4942:	fff78693          	addi	a3,a5,-1 # ffff <_data_lma+0x9c6b>
    4946:	01161793          	slli	a5,a2,0x11
    494a:	0007df63          	bgez	a5,4968 <USBD_Reset+0x128>
    494e:	c0472783          	lw	a5,-1020(a4)
    4952:	8ff5                	and	a5,a5,a3
    4954:	6685                	lui	a3,0x1
    4956:	f0f68693          	addi	a3,a3,-241 # f0f <USBH_EnumRootDevice+0x7f>
    495a:	8ff5                	and	a5,a5,a3
    495c:	66b1                	lui	a3,0xc
    495e:	08068693          	addi	a3,a3,128 # c080 <_data_lma+0x5cec>
    4962:	8fd5                	or	a5,a5,a3
    4964:	c0f72223          	sw	a5,-1020(a4)
    4968:	60000593          	li	a1,1536
    496c:	4509                	li	a0,2
    496e:	dfeff0ef          	jal	ra,3f6c <SetEPType>
    4972:	0d000593          	li	a1,208
    4976:	4509                	li	a0,2
    4978:	f34ff0ef          	jal	ra,40ac <SetEPTxAddr>
    497c:	02000593          	li	a1,32
    4980:	4509                	li	a0,2
    4982:	e0aff0ef          	jal	ra,3f8c <SetEPTxStatus>
    4986:	40006737          	lui	a4,0x40006
    498a:	c0872783          	lw	a5,-1016(a4) # 40005c08 <_eusrstack+0x20000c08>
    498e:	0407f793          	andi	a5,a5,64
    4992:	c385                	beqz	a5,49b2 <USBD_Reset+0x172>
    4994:	c0872783          	lw	a5,-1016(a4)
    4998:	66c1                	lui	a3,0x10
    499a:	16fd                	addi	a3,a3,-1
    499c:	8ff5                	and	a5,a5,a3
    499e:	6685                	lui	a3,0x1
    49a0:	f0f68693          	addi	a3,a3,-241 # f0f <USBH_EnumRootDevice+0x7f>
    49a4:	8ff5                	and	a5,a5,a3
    49a6:	66a1                	lui	a3,0x8
    49a8:	0c068693          	addi	a3,a3,192 # 80c0 <_data_lma+0x1d2c>
    49ac:	8fd5                	or	a5,a5,a3
    49ae:	c0f72423          	sw	a5,-1016(a4)
    49b2:	40006737          	lui	a4,0x40006
    49b6:	c0872603          	lw	a2,-1016(a4) # 40005c08 <_eusrstack+0x20000c08>
    49ba:	67c1                	lui	a5,0x10
    49bc:	fff78693          	addi	a3,a5,-1 # ffff <_data_lma+0x9c6b>
    49c0:	01161793          	slli	a5,a2,0x11
    49c4:	0007df63          	bgez	a5,49e2 <USBD_Reset+0x1a2>
    49c8:	c0872783          	lw	a5,-1016(a4)
    49cc:	8ff5                	and	a5,a5,a3
    49ce:	6685                	lui	a3,0x1
    49d0:	f0f68693          	addi	a3,a3,-241 # f0f <USBH_EnumRootDevice+0x7f>
    49d4:	8ff5                	and	a5,a5,a3
    49d6:	66b1                	lui	a3,0xc
    49d8:	08068693          	addi	a3,a3,128 # c080 <_data_lma+0x5cec>
    49dc:	8fd5                	or	a5,a5,a3
    49de:	c0f72423          	sw	a5,-1016(a4)
    49e2:	4501                	li	a0,0
    49e4:	860ff0ef          	jal	ra,3a44 <SetDeviceAddress>
    49e8:	4705                	li	a4,1
    49ea:	90e1ae23          	sw	a4,-1764(gp) # 200002f4 <bDeviceState>
    49ee:	fa6fb06f          	j	194 <__riscv_restore_0>

000049f2 <USBD_GetDeviceDescriptor>:
    49f2:	f7efb2ef          	jal	t0,170 <__riscv_save_0>
    49f6:	8bc18593          	addi	a1,gp,-1860 # 20000294 <Device_Descriptor>
    49fa:	bc1fe0ef          	jal	ra,35ba <Standard_GetDescriptorData>
    49fe:	f96fb06f          	j	194 <__riscv_restore_0>

00004a02 <USBD_GetStringDescriptor>:
    4a02:	8e81a783          	lw	a5,-1816(gp) # 200002c0 <pInformation>
    4a06:	0037c583          	lbu	a1,3(a5)
    4a0a:	4791                	li	a5,4
    4a0c:	00b7ee63          	bltu	a5,a1,4a28 <USBD_GetStringDescriptor+0x26>
    4a10:	f60fb2ef          	jal	t0,170 <__riscv_save_0>
    4a14:	200017b7          	lui	a5,0x20001
    4a18:	2e878793          	addi	a5,a5,744 # 200012e8 <String_Descriptor>
    4a1c:	058e                	slli	a1,a1,0x3
    4a1e:	95be                	add	a1,a1,a5
    4a20:	b9bfe0ef          	jal	ra,35ba <Standard_GetDescriptorData>
    4a24:	f70fb06f          	j	194 <__riscv_restore_0>
    4a28:	4501                	li	a0,0
    4a2a:	8082                	ret

00004a2c <USBD_GetReportDescriptor>:
    4a2c:	200007b7          	lui	a5,0x20000
    4a30:	1dc7c583          	lbu	a1,476(a5) # 200001dc <new_descripter>
    4a34:	4789                	li	a5,2
    4a36:	00b7ee63          	bltu	a5,a1,4a52 <USBD_GetReportDescriptor+0x26>
    4a3a:	f36fb2ef          	jal	t0,170 <__riscv_save_0>
    4a3e:	200017b7          	lui	a5,0x20001
    4a42:	2b878793          	addi	a5,a5,696 # 200012b8 <Report_Descriptor>
    4a46:	058e                	slli	a1,a1,0x3
    4a48:	95be                	add	a1,a1,a5
    4a4a:	b71fe0ef          	jal	ra,35ba <Standard_GetDescriptorData>
    4a4e:	f46fb06f          	j	194 <__riscv_restore_0>
    4a52:	4501                	li	a0,0
    4a54:	8082                	ret

00004a56 <USBD_GetHidDescriptor>:
    4a56:	200007b7          	lui	a5,0x20000
    4a5a:	1dc7c583          	lbu	a1,476(a5) # 200001dc <new_descripter>
    4a5e:	4789                	li	a5,2
    4a60:	00b7ec63          	bltu	a5,a1,4a78 <USBD_GetHidDescriptor+0x22>
    4a64:	f0cfb2ef          	jal	t0,170 <__riscv_save_0>
    4a68:	39c18793          	addi	a5,gp,924 # 20000d74 <Hid_Descriptor>
    4a6c:	058e                	slli	a1,a1,0x3
    4a6e:	95be                	add	a1,a1,a5
    4a70:	b4bfe0ef          	jal	ra,35ba <Standard_GetDescriptorData>
    4a74:	f20fb06f          	j	194 <__riscv_restore_0>
    4a78:	4501                	li	a0,0
    4a7a:	8082                	ret

00004a7c <USBD_GetConfigDescriptor>:
    4a7c:	ef4fb2ef          	jal	t0,170 <__riscv_save_0>
    4a80:	200007b7          	lui	a5,0x20000
    4a84:	1dc7c783          	lbu	a5,476(a5) # 200001dc <new_descripter>
    4a88:	e799                	bnez	a5,4a96 <USBD_GetConfigDescriptor+0x1a>
    4a8a:	8b418593          	addi	a1,gp,-1868 # 2000028c <Config_Descriptor_KB>
    4a8e:	b2dfe0ef          	jal	ra,35ba <Standard_GetDescriptorData>
    4a92:	f02fb06f          	j	194 <__riscv_restore_0>
    4a96:	81018593          	addi	a1,gp,-2032 # 200001e8 <Config_Descriptor_MS>
    4a9a:	bfd5                	j	4a8e <USBD_GetConfigDescriptor+0x12>

00004a9c <USBD_Status_Out>:
    4a9c:	8082                	ret

00004a9e <PowerOn>:
    4a9e:	400067b7          	lui	a5,0x40006
    4aa2:	4705                	li	a4,1
    4aa4:	c4e7a023          	sw	a4,-960(a5) # 40005c40 <_eusrstack+0x20000c40>
    4aa8:	c407a023          	sw	zero,-960(a5)
    4aac:	6709                	lui	a4,0x2
    4aae:	c407a223          	sw	zero,-956(a5)
    4ab2:	c0070713          	addi	a4,a4,-1024 # 1c00 <USBH_MainDeal+0x2a>
    4ab6:	8ee19a23          	sh	a4,-1804(gp) # 200002cc <wInterrupt_Mask>
    4aba:	6709                	lui	a4,0x2
    4abc:	c0070713          	addi	a4,a4,-1024 # 1c00 <USBH_MainDeal+0x2a>
    4ac0:	c4e7a023          	sw	a4,-960(a5)
    4ac4:	4501                	li	a0,0
    4ac6:	8082                	ret

00004ac8 <Suspend>:
    4ac8:	ea8fb2ef          	jal	t0,170 <__riscv_save_0>
    4acc:	400067b7          	lui	a5,0x40006
    4ad0:	c407a783          	lw	a5,-960(a5) # 40005c40 <_eusrstack+0x20000c40>
    4ad4:	40006737          	lui	a4,0x40006
    4ad8:	6841                	lui	a6,0x10
    4ada:	07c2                	slli	a5,a5,0x10
    4adc:	200015b7          	lui	a1,0x20001
    4ae0:	83c1                	srli	a5,a5,0x10
    4ae2:	4681                	li	a3,0
    4ae4:	c0070313          	addi	t1,a4,-1024 # 40005c00 <_eusrstack+0x20000c00>
    4ae8:	187d                	addi	a6,a6,-1
    4aea:	3a458593          	addi	a1,a1,932 # 200013a4 <EP>
    4aee:	48a1                	li	a7,8
    4af0:	00269613          	slli	a2,a3,0x2
    4af4:	00660533          	add	a0,a2,t1
    4af8:	4108                	lw	a0,0(a0)
    4afa:	962e                	add	a2,a2,a1
    4afc:	0685                	addi	a3,a3,1
    4afe:	01057533          	and	a0,a0,a6
    4b02:	c208                	sw	a0,0(a2)
    4b04:	ff1696e3          	bne	a3,a7,4af0 <Suspend+0x28>
    4b08:	4007e693          	ori	a3,a5,1024
    4b0c:	c4d72023          	sw	a3,-960(a4)
    4b10:	4017e693          	ori	a3,a5,1025
    4b14:	9bf9                	andi	a5,a5,-2
    4b16:	07c2                	slli	a5,a5,0x10
    4b18:	83c1                	srli	a5,a5,0x10
    4b1a:	c4d72023          	sw	a3,-960(a4)
    4b1e:	4007e693          	ori	a3,a5,1024
    4b22:	c4d72023          	sw	a3,-960(a4)
    4b26:	400066b7          	lui	a3,0x40006
    4b2a:	c446a703          	lw	a4,-956(a3) # 40005c44 <_eusrstack+0x20000c44>
    4b2e:	40077713          	andi	a4,a4,1024
    4b32:	df65                	beqz	a4,4b2a <Suspend+0x62>
    4b34:	6741                	lui	a4,0x10
    4b36:	bff70713          	addi	a4,a4,-1025 # fbff <_data_lma+0x986b>
    4b3a:	c4e6a223          	sw	a4,-956(a3)
    4b3e:	6841                	lui	a6,0x10
    4b40:	40006737          	lui	a4,0x40006
    4b44:	4681                	li	a3,0
    4b46:	c0070313          	addi	t1,a4,-1024 # 40005c00 <_eusrstack+0x20000c00>
    4b4a:	187d                	addi	a6,a6,-1
    4b4c:	48a1                	li	a7,8
    4b4e:	00269613          	slli	a2,a3,0x2
    4b52:	00c58533          	add	a0,a1,a2
    4b56:	4108                	lw	a0,0(a0)
    4b58:	961a                	add	a2,a2,t1
    4b5a:	0685                	addi	a3,a3,1
    4b5c:	01057533          	and	a0,a0,a6
    4b60:	c208                	sw	a0,0(a2)
    4b62:	ff1696e3          	bne	a3,a7,4b4e <Suspend+0x86>
    4b66:	4087e793          	ori	a5,a5,1032
    4b6a:	c4f72023          	sw	a5,-960(a4)
    4b6e:	c4072783          	lw	a5,-960(a4)
    4b72:	07c2                	slli	a5,a5,0x10
    4b74:	83c1                	srli	a5,a5,0x10
    4b76:	0047e793          	ori	a5,a5,4
    4b7a:	c4f72023          	sw	a5,-960(a4)
    4b7e:	edeff0ef          	jal	ra,425c <Enter_LowPowerMode>
    4b82:	e12fb06f          	j	194 <__riscv_restore_0>

00004b86 <Resume_Init>:
    4b86:	deafb2ef          	jal	t0,170 <__riscv_save_0>
    4b8a:	40006437          	lui	s0,0x40006
    4b8e:	c4042783          	lw	a5,-960(s0) # 40005c40 <_eusrstack+0x20000c40>
    4b92:	07c2                	slli	a5,a5,0x10
    4b94:	83c1                	srli	a5,a5,0x10
    4b96:	9bed                	andi	a5,a5,-5
    4b98:	07c2                	slli	a5,a5,0x10
    4b9a:	83c1                	srli	a5,a5,0x10
    4b9c:	c4f42023          	sw	a5,-960(s0)
    4ba0:	ef0ff0ef          	jal	ra,4290 <Leave_LowPowerMode>
    4ba4:	67b1                	lui	a5,0xc
    4ba6:	f0078793          	addi	a5,a5,-256 # bf00 <_data_lma+0x5b6c>
    4baa:	c4f42023          	sw	a5,-960(s0)
    4bae:	de6fb06f          	j	194 <__riscv_restore_0>

00004bb2 <Resume>:
    4bb2:	dbefb2ef          	jal	t0,170 <__riscv_save_0>
    4bb6:	479d                	li	a5,7
    4bb8:	91418413          	addi	s0,gp,-1772 # 200002ec <ResumeS>
    4bbc:	00f50363          	beq	a0,a5,4bc2 <Resume+0x10>
    4bc0:	c008                	sw	a0,0(s0)
    4bc2:	401c                	lw	a5,0(s0)
    4bc4:	4715                	li	a4,5
    4bc6:	00f76e63          	bltu	a4,a5,4be2 <Resume+0x30>
    4bca:	6719                	lui	a4,0x6
    4bcc:	078a                	slli	a5,a5,0x2
    4bce:	2e070713          	addi	a4,a4,736 # 62e0 <MySerNumInfo+0x50>
    4bd2:	97ba                	add	a5,a5,a4
    4bd4:	439c                	lw	a5,0(a5)
    4bd6:	8782                	jr	a5
    4bd8:	9201a783          	lw	a5,-1760(gp) # 200002f8 <remotewakeupon>
    4bdc:	e789                	bnez	a5,4be6 <Resume+0x34>
    4bde:	fa9ff0ef          	jal	ra,4b86 <Resume_Init>
    4be2:	4799                	li	a5,6
    4be4:	a011                	j	4be8 <Resume+0x36>
    4be6:	4795                	li	a5,5
    4be8:	c01c                	sw	a5,0(s0)
    4bea:	a801                	j	4bfa <Resume+0x48>
    4bec:	f9bff0ef          	jal	ra,4b86 <Resume_Init>
    4bf0:	4791                	li	a5,4
    4bf2:	c01c                	sw	a5,0(s0)
    4bf4:	4705                	li	a4,1
    4bf6:	92e1a023          	sw	a4,-1760(gp) # 200002f8 <remotewakeupon>
    4bfa:	d9afb06f          	j	194 <__riscv_restore_0>
    4bfe:	4789                	li	a5,2
    4c00:	00f40223          	sb	a5,4(s0)
    4c04:	478d                	li	a5,3
    4c06:	b7cd                	j	4be8 <Resume+0x36>
    4c08:	00444783          	lbu	a5,4(s0)
    4c0c:	17fd                	addi	a5,a5,-1
    4c0e:	0ff7f793          	andi	a5,a5,255
    4c12:	00f40223          	sb	a5,4(s0)
    4c16:	00444783          	lbu	a5,4(s0)
    4c1a:	0ff7f793          	andi	a5,a5,255
    4c1e:	fff1                	bnez	a5,4bfa <Resume+0x48>
    4c20:	4791                	li	a5,4
    4c22:	b7d9                	j	4be8 <Resume+0x36>
    4c24:	40006737          	lui	a4,0x40006
    4c28:	c4072783          	lw	a5,-960(a4) # 40005c40 <_eusrstack+0x20000c40>
    4c2c:	07c2                	slli	a5,a5,0x10
    4c2e:	83c1                	srli	a5,a5,0x10
    4c30:	0107e793          	ori	a5,a5,16
    4c34:	c4f72023          	sw	a5,-960(a4)
    4c38:	4795                	li	a5,5
    4c3a:	c01c                	sw	a5,0(s0)
    4c3c:	47a9                	li	a5,10
    4c3e:	00f40223          	sb	a5,4(s0)
    4c42:	bf65                	j	4bfa <Resume+0x48>
    4c44:	00444783          	lbu	a5,4(s0)
    4c48:	17fd                	addi	a5,a5,-1
    4c4a:	0ff7f793          	andi	a5,a5,255
    4c4e:	00f40223          	sb	a5,4(s0)
    4c52:	00444783          	lbu	a5,4(s0)
    4c56:	0ff7f793          	andi	a5,a5,255
    4c5a:	f3c5                	bnez	a5,4bfa <Resume+0x48>
    4c5c:	40006737          	lui	a4,0x40006
    4c60:	c4072783          	lw	a5,-960(a4) # 40005c40 <_eusrstack+0x20000c40>
    4c64:	07c2                	slli	a5,a5,0x10
    4c66:	83c1                	srli	a5,a5,0x10
    4c68:	9bbd                	andi	a5,a5,-17
    4c6a:	07c2                	slli	a5,a5,0x10
    4c6c:	83c1                	srli	a5,a5,0x10
    4c6e:	c4f72023          	sw	a5,-960(a4)
    4c72:	4799                	li	a5,6
    4c74:	c01c                	sw	a5,0(s0)
    4c76:	9201a023          	sw	zero,-1760(gp) # 200002f8 <remotewakeupon>
    4c7a:	b741                	j	4bfa <Resume+0x48>

00004c7c <USART2_IRQHandler>:
    4c7c:	2019                	jal	4c82 <USART2_IRQHandler_Real>
    4c7e:	30200073          	mret

00004c82 <USART2_IRQHandler_Real>:
    4c82:	ceefb2ef          	jal	t0,170 <__riscv_save_0>
    4c86:	40004437          	lui	s0,0x40004
    4c8a:	52500593          	li	a1,1317
    4c8e:	40040513          	addi	a0,s0,1024 # 40004400 <_eusrstack+0x1ffff400>
    4c92:	ca0fe0ef          	jal	ra,3132 <USART_GetITStatus>
    4c96:	c909                	beqz	a0,4ca8 <USART2_IRQHandler_Real+0x26>
    4c98:	40040513          	addi	a0,s0,1024
    4c9c:	c80fe0ef          	jal	ra,311c <USART_ReceiveData>
    4ca0:	0ff57513          	andi	a0,a0,255
    4ca4:	92a182a3          	sb	a0,-1755(gp) # 200002fd <USART_Recv_Dat>
    4ca8:	cecfb06f          	j	194 <__riscv_restore_0>

00004cac <MCU_Sleep_Wakeup_Operate>:
    4cac:	cc4fb2ef          	jal	t0,170 <__riscv_save_0>
    4cb0:	653d                	lui	a0,0xf
    4cb2:	f73fd0ef          	jal	ra,2c24 <EXTI_ClearFlag>
    4cb6:	0f000513          	li	a0,240
    4cba:	f6bfd0ef          	jal	ra,2c24 <EXTI_ClearFlag>
    4cbe:	e000f7b7          	lui	a5,0xe000f
    4cc2:	d107a683          	lw	a3,-752(a5) # e000ed10 <_eusrstack+0xc0009d10>
    4cc6:	d107a703          	lw	a4,-752(a5)
    4cca:	0206f693          	andi	a3,a3,32
    4cce:	02876713          	ori	a4,a4,40
    4cd2:	d0e7a823          	sw	a4,-752(a5)
    4cd6:	d107a703          	lw	a4,-752(a5)
    4cda:	fdf77713          	andi	a4,a4,-33
    4cde:	8f55                	or	a4,a4,a3
    4ce0:	d0e7a823          	sw	a4,-752(a5)
    4ce4:	10500073          	wfi
    4ce8:	10500073          	wfi
    4cec:	653d                	lui	a0,0xf
    4cee:	f25fd0ef          	jal	ra,2c12 <EXTI_GetFlagStatus>
    4cf2:	c909                	beqz	a0,4d04 <MCU_Sleep_Wakeup_Operate+0x58>
    4cf4:	653d                	lui	a0,0xf
    4cf6:	f2ffd0ef          	jal	ra,2c24 <EXTI_ClearFlag>
    4cfa:	4505                	li	a0,1
    4cfc:	eb7ff0ef          	jal	ra,4bb2 <Resume>
    4d00:	c94fb06f          	j	194 <__riscv_restore_0>
    4d04:	0f000513          	li	a0,240
    4d08:	f0bfd0ef          	jal	ra,2c12 <EXTI_GetFlagStatus>
    4d0c:	d975                	beqz	a0,4d00 <MCU_Sleep_Wakeup_Operate+0x54>
    4d0e:	0f000513          	li	a0,240
    4d12:	b7d5                	j	4cf6 <MCU_Sleep_Wakeup_Operate+0x4a>

00004d14 <Delay_Init>:
    4d14:	200007b7          	lui	a5,0x20000
    4d18:	1d87a783          	lw	a5,472(a5) # 200001d8 <SystemCoreClock>
    4d1c:	007a1737          	lui	a4,0x7a1
    4d20:	20070713          	addi	a4,a4,512 # 7a1200 <_data_lma+0x79ae6c>
    4d24:	02e7d7b3          	divu	a5,a5,a4
    4d28:	0ff7f793          	andi	a5,a5,255
    4d2c:	92f18423          	sb	a5,-1752(gp) # 20000300 <p_us>
    4d30:	3e800713          	li	a4,1000
    4d34:	02e787b3          	mul	a5,a5,a4
    4d38:	92f19323          	sh	a5,-1754(gp) # 200002fe <p_ms>
    4d3c:	8082                	ret

00004d3e <Delay_Us>:
    4d3e:	e000f7b7          	lui	a5,0xe000f
    4d42:	43d8                	lw	a4,4(a5)
    4d44:	4681                	li	a3,0
    4d46:	9b79                	andi	a4,a4,-2
    4d48:	c3d8                	sw	a4,4(a5)
    4d4a:	9281c703          	lbu	a4,-1752(gp) # 20000300 <p_us>
    4d4e:	02a70633          	mul	a2,a4,a0
    4d52:	cb90                	sw	a2,16(a5)
    4d54:	cbd4                	sw	a3,20(a5)
    4d56:	4398                	lw	a4,0(a5)
    4d58:	01076713          	ori	a4,a4,16
    4d5c:	c398                	sw	a4,0(a5)
    4d5e:	4398                	lw	a4,0(a5)
    4d60:	02176713          	ori	a4,a4,33
    4d64:	c398                	sw	a4,0(a5)
    4d66:	43d8                	lw	a4,4(a5)
    4d68:	8b05                	andi	a4,a4,1
    4d6a:	df75                	beqz	a4,4d66 <Delay_Us+0x28>
    4d6c:	4398                	lw	a4,0(a5)
    4d6e:	9b79                	andi	a4,a4,-2
    4d70:	c398                	sw	a4,0(a5)
    4d72:	8082                	ret

00004d74 <Delay_Ms>:
    4d74:	e000f7b7          	lui	a5,0xe000f
    4d78:	43d8                	lw	a4,4(a5)
    4d7a:	4681                	li	a3,0
    4d7c:	9b79                	andi	a4,a4,-2
    4d7e:	c3d8                	sw	a4,4(a5)
    4d80:	9261d703          	lhu	a4,-1754(gp) # 200002fe <p_ms>
    4d84:	02a70633          	mul	a2,a4,a0
    4d88:	cb90                	sw	a2,16(a5)
    4d8a:	cbd4                	sw	a3,20(a5)
    4d8c:	4398                	lw	a4,0(a5)
    4d8e:	01076713          	ori	a4,a4,16
    4d92:	c398                	sw	a4,0(a5)
    4d94:	4398                	lw	a4,0(a5)
    4d96:	02176713          	ori	a4,a4,33
    4d9a:	c398                	sw	a4,0(a5)
    4d9c:	43d8                	lw	a4,4(a5)
    4d9e:	8b05                	andi	a4,a4,1
    4da0:	df75                	beqz	a4,4d9c <Delay_Ms+0x28>
    4da2:	4398                	lw	a4,0(a5)
    4da4:	9b79                	andi	a4,a4,-2
    4da6:	c398                	sw	a4,0(a5)
    4da8:	8082                	ret

00004daa <USART_Printf_Init>:
    4daa:	bc6fb2ef          	jal	t0,170 <__riscv_save_0>
    4dae:	842a                	mv	s0,a0
    4db0:	6511                	lui	a0,0x4
    4db2:	1101                	addi	sp,sp,-32
    4db4:	4585                	li	a1,1
    4db6:	0511                	addi	a0,a0,4
    4db8:	94efe0ef          	jal	ra,2f06 <RCC_APB2PeriphClockCmd>
    4dbc:	20000793          	li	a5,512
    4dc0:	00f11223          	sh	a5,4(sp)
    4dc4:	40011537          	lui	a0,0x40011
    4dc8:	478d                	li	a5,3
    4dca:	c43e                	sw	a5,8(sp)
    4dcc:	004c                	addi	a1,sp,4
    4dce:	47e1                	li	a5,24
    4dd0:	80050513          	addi	a0,a0,-2048 # 40010800 <_eusrstack+0x2000b800>
    4dd4:	c63e                	sw	a5,12(sp)
    4dd6:	e63fd0ef          	jal	ra,2c38 <GPIO_Init>
    4dda:	c822                	sw	s0,16(sp)
    4ddc:	40014437          	lui	s0,0x40014
    4de0:	000807b7          	lui	a5,0x80
    4de4:	080c                	addi	a1,sp,16
    4de6:	80040513          	addi	a0,s0,-2048 # 40013800 <_eusrstack+0x2000e800>
    4dea:	cc3e                	sw	a5,24(sp)
    4dec:	ca02                	sw	zero,20(sp)
    4dee:	00011e23          	sh	zero,28(sp)
    4df2:	a2cfe0ef          	jal	ra,301e <USART_Init>
    4df6:	4585                	li	a1,1
    4df8:	80040513          	addi	a0,s0,-2048
    4dfc:	afafe0ef          	jal	ra,30f6 <USART_Cmd>
    4e00:	6105                	addi	sp,sp,32
    4e02:	b92fb06f          	j	194 <__riscv_restore_0>

00004e06 <_write>:
    4e06:	b50fb2ef          	jal	t0,156 <__riscv_save_4>
    4e0a:	400144b7          	lui	s1,0x40014
    4e0e:	89ae                	mv	s3,a1
    4e10:	8932                	mv	s2,a2
    4e12:	4401                	li	s0,0
    4e14:	80048493          	addi	s1,s1,-2048 # 40013800 <_eusrstack+0x2000e800>
    4e18:	01244563          	blt	s0,s2,4e22 <_write+0x1c>
    4e1c:	854a                	mv	a0,s2
    4e1e:	b6cfb06f          	j	18a <__riscv_restore_4>
    4e22:	04000593          	li	a1,64
    4e26:	8526                	mv	a0,s1
    4e28:	afefe0ef          	jal	ra,3126 <USART_GetFlagStatus>
    4e2c:	d97d                	beqz	a0,4e22 <_write+0x1c>
    4e2e:	008987b3          	add	a5,s3,s0
    4e32:	00078583          	lb	a1,0(a5) # 80000 <_data_lma+0x79c6c>
    4e36:	8526                	mv	a0,s1
    4e38:	0405                	addi	s0,s0,1
    4e3a:	05c2                	slli	a1,a1,0x10
    4e3c:	81c1                	srli	a1,a1,0x10
    4e3e:	ad4fe0ef          	jal	ra,3112 <USART_SendData>
    4e42:	bfd9                	j	4e18 <_write+0x12>

00004e44 <_sbrk>:
    4e44:	82018713          	addi	a4,gp,-2016 # 200001f8 <curbrk.4583>
    4e48:	431c                	lw	a5,0(a4)
    4e4a:	200016b7          	lui	a3,0x20001
    4e4e:	3c868693          	addi	a3,a3,968 # 200013c8 <_ebss>
    4e52:	953e                	add	a0,a0,a5
    4e54:	00d56b63          	bltu	a0,a3,4e6a <_sbrk+0x26>
    4e58:	200056b7          	lui	a3,0x20005
    4e5c:	80068693          	addi	a3,a3,-2048 # 20004800 <_heap_end>
    4e60:	00a6e563          	bltu	a3,a0,4e6a <_sbrk+0x26>
    4e64:	c308                	sw	a0,0(a4)
    4e66:	853e                	mv	a0,a5
    4e68:	8082                	ret
    4e6a:	57fd                	li	a5,-1
    4e6c:	bfed                	j	4e66 <_sbrk+0x22>

00004e6e <malloc>:
    4e6e:	82418793          	addi	a5,gp,-2012 # 200001fc <_impure_ptr>
    4e72:	85aa                	mv	a1,a0
    4e74:	4388                	lw	a0,0(a5)
    4e76:	aaad                	j	4ff0 <_malloc_r>

00004e78 <memchr>:
    4e78:	0ff5f593          	andi	a1,a1,255
    4e7c:	962a                	add	a2,a2,a0
    4e7e:	00c51463          	bne	a0,a2,4e86 <memchr+0xe>
    4e82:	4501                	li	a0,0
    4e84:	8082                	ret
    4e86:	00054783          	lbu	a5,0(a0)
    4e8a:	feb78de3          	beq	a5,a1,4e84 <memchr+0xc>
    4e8e:	0505                	addi	a0,a0,1
    4e90:	b7fd                	j	4e7e <memchr+0x6>

00004e92 <memcpy>:
    4e92:	00a5c7b3          	xor	a5,a1,a0
    4e96:	8b8d                	andi	a5,a5,3
    4e98:	00c50733          	add	a4,a0,a2
    4e9c:	e781                	bnez	a5,4ea4 <memcpy+0x12>
    4e9e:	478d                	li	a5,3
    4ea0:	00c7ee63          	bltu	a5,a2,4ebc <memcpy+0x2a>
    4ea4:	87aa                	mv	a5,a0
    4ea6:	0ae57063          	bgeu	a0,a4,4f46 <memcpy+0xb4>
    4eaa:	0005c683          	lbu	a3,0(a1)
    4eae:	0785                	addi	a5,a5,1
    4eb0:	0585                	addi	a1,a1,1
    4eb2:	fed78fa3          	sb	a3,-1(a5)
    4eb6:	fee7eae3          	bltu	a5,a4,4eaa <memcpy+0x18>
    4eba:	8082                	ret
    4ebc:	00357693          	andi	a3,a0,3
    4ec0:	87aa                	mv	a5,a0
    4ec2:	ca91                	beqz	a3,4ed6 <memcpy+0x44>
    4ec4:	0005c683          	lbu	a3,0(a1)
    4ec8:	0785                	addi	a5,a5,1
    4eca:	0585                	addi	a1,a1,1
    4ecc:	fed78fa3          	sb	a3,-1(a5)
    4ed0:	0037f693          	andi	a3,a5,3
    4ed4:	b7fd                	j	4ec2 <memcpy+0x30>
    4ed6:	ffc77693          	andi	a3,a4,-4
    4eda:	fe068613          	addi	a2,a3,-32
    4ede:	06c7f063          	bgeu	a5,a2,4f3e <memcpy+0xac>
    4ee2:	0005a383          	lw	t2,0(a1)
    4ee6:	0045a283          	lw	t0,4(a1)
    4eea:	0085af83          	lw	t6,8(a1)
    4eee:	00c5af03          	lw	t5,12(a1)
    4ef2:	0105ae83          	lw	t4,16(a1)
    4ef6:	0145ae03          	lw	t3,20(a1)
    4efa:	0185a303          	lw	t1,24(a1)
    4efe:	01c5a883          	lw	a7,28(a1)
    4f02:	02458593          	addi	a1,a1,36
    4f06:	0077a023          	sw	t2,0(a5)
    4f0a:	ffc5a803          	lw	a6,-4(a1)
    4f0e:	0057a223          	sw	t0,4(a5)
    4f12:	01f7a423          	sw	t6,8(a5)
    4f16:	01e7a623          	sw	t5,12(a5)
    4f1a:	01d7a823          	sw	t4,16(a5)
    4f1e:	01c7aa23          	sw	t3,20(a5)
    4f22:	0067ac23          	sw	t1,24(a5)
    4f26:	0117ae23          	sw	a7,28(a5)
    4f2a:	02478793          	addi	a5,a5,36
    4f2e:	ff07ae23          	sw	a6,-4(a5)
    4f32:	b775                	j	4ede <memcpy+0x4c>
    4f34:	4190                	lw	a2,0(a1)
    4f36:	0791                	addi	a5,a5,4
    4f38:	0591                	addi	a1,a1,4
    4f3a:	fec7ae23          	sw	a2,-4(a5)
    4f3e:	fed7ebe3          	bltu	a5,a3,4f34 <memcpy+0xa2>
    4f42:	f6e7e4e3          	bltu	a5,a4,4eaa <memcpy+0x18>
    4f46:	8082                	ret

00004f48 <_free_r>:
    4f48:	c1dd                	beqz	a1,4fee <_free_r+0xa6>
    4f4a:	ffc5a783          	lw	a5,-4(a1)
    4f4e:	1141                	addi	sp,sp,-16
    4f50:	c422                	sw	s0,8(sp)
    4f52:	c606                	sw	ra,12(sp)
    4f54:	c226                	sw	s1,4(sp)
    4f56:	ffc58413          	addi	s0,a1,-4
    4f5a:	0007d363          	bgez	a5,4f60 <_free_r+0x18>
    4f5e:	943e                	add	s0,s0,a5
    4f60:	84aa                	mv	s1,a0
    4f62:	15d000ef          	jal	ra,58be <__malloc_lock>
    4f66:	92c18793          	addi	a5,gp,-1748 # 20000304 <__malloc_free_list>
    4f6a:	439c                	lw	a5,0(a5)
    4f6c:	ef81                	bnez	a5,4f84 <_free_r+0x3c>
    4f6e:	00042223          	sw	zero,4(s0)
    4f72:	9281a623          	sw	s0,-1748(gp) # 20000304 <__malloc_free_list>
    4f76:	4422                	lw	s0,8(sp)
    4f78:	40b2                	lw	ra,12(sp)
    4f7a:	8526                	mv	a0,s1
    4f7c:	4492                	lw	s1,4(sp)
    4f7e:	0141                	addi	sp,sp,16
    4f80:	1410006f          	j	58c0 <__malloc_unlock>
    4f84:	00f47e63          	bgeu	s0,a5,4fa0 <_free_r+0x58>
    4f88:	4014                	lw	a3,0(s0)
    4f8a:	00d40733          	add	a4,s0,a3
    4f8e:	00e79663          	bne	a5,a4,4f9a <_free_r+0x52>
    4f92:	4398                	lw	a4,0(a5)
    4f94:	43dc                	lw	a5,4(a5)
    4f96:	9736                	add	a4,a4,a3
    4f98:	c018                	sw	a4,0(s0)
    4f9a:	c05c                	sw	a5,4(s0)
    4f9c:	bfd9                	j	4f72 <_free_r+0x2a>
    4f9e:	87ba                	mv	a5,a4
    4fa0:	43d8                	lw	a4,4(a5)
    4fa2:	c319                	beqz	a4,4fa8 <_free_r+0x60>
    4fa4:	fee47de3          	bgeu	s0,a4,4f9e <_free_r+0x56>
    4fa8:	4394                	lw	a3,0(a5)
    4faa:	00d78633          	add	a2,a5,a3
    4fae:	00861f63          	bne	a2,s0,4fcc <_free_r+0x84>
    4fb2:	4010                	lw	a2,0(s0)
    4fb4:	96b2                	add	a3,a3,a2
    4fb6:	c394                	sw	a3,0(a5)
    4fb8:	00d78633          	add	a2,a5,a3
    4fbc:	fac71de3          	bne	a4,a2,4f76 <_free_r+0x2e>
    4fc0:	4310                	lw	a2,0(a4)
    4fc2:	4358                	lw	a4,4(a4)
    4fc4:	96b2                	add	a3,a3,a2
    4fc6:	c394                	sw	a3,0(a5)
    4fc8:	c3d8                	sw	a4,4(a5)
    4fca:	b775                	j	4f76 <_free_r+0x2e>
    4fcc:	00c47563          	bgeu	s0,a2,4fd6 <_free_r+0x8e>
    4fd0:	47b1                	li	a5,12
    4fd2:	c09c                	sw	a5,0(s1)
    4fd4:	b74d                	j	4f76 <_free_r+0x2e>
    4fd6:	4010                	lw	a2,0(s0)
    4fd8:	00c406b3          	add	a3,s0,a2
    4fdc:	00d71663          	bne	a4,a3,4fe8 <_free_r+0xa0>
    4fe0:	4314                	lw	a3,0(a4)
    4fe2:	4358                	lw	a4,4(a4)
    4fe4:	96b2                	add	a3,a3,a2
    4fe6:	c014                	sw	a3,0(s0)
    4fe8:	c058                	sw	a4,4(s0)
    4fea:	c3c0                	sw	s0,4(a5)
    4fec:	b769                	j	4f76 <_free_r+0x2e>
    4fee:	8082                	ret

00004ff0 <_malloc_r>:
    4ff0:	1101                	addi	sp,sp,-32
    4ff2:	ca26                	sw	s1,20(sp)
    4ff4:	00358493          	addi	s1,a1,3
    4ff8:	98f1                	andi	s1,s1,-4
    4ffa:	ce06                	sw	ra,28(sp)
    4ffc:	cc22                	sw	s0,24(sp)
    4ffe:	c84a                	sw	s2,16(sp)
    5000:	c64e                	sw	s3,12(sp)
    5002:	04a1                	addi	s1,s1,8
    5004:	47b1                	li	a5,12
    5006:	04f4f363          	bgeu	s1,a5,504c <_malloc_r+0x5c>
    500a:	44b1                	li	s1,12
    500c:	04b4e263          	bltu	s1,a1,5050 <_malloc_r+0x60>
    5010:	892a                	mv	s2,a0
    5012:	0ad000ef          	jal	ra,58be <__malloc_lock>
    5016:	92c18793          	addi	a5,gp,-1748 # 20000304 <__malloc_free_list>
    501a:	4398                	lw	a4,0(a5)
    501c:	843a                	mv	s0,a4
    501e:	e039                	bnez	s0,5064 <_malloc_r+0x74>
    5020:	93018793          	addi	a5,gp,-1744 # 20000308 <__malloc_sbrk_start>
    5024:	439c                	lw	a5,0(a5)
    5026:	e791                	bnez	a5,5032 <_malloc_r+0x42>
    5028:	4581                	li	a1,0
    502a:	854a                	mv	a0,s2
    502c:	2a7d                	jal	51ea <_sbrk_r>
    502e:	92a1a823          	sw	a0,-1744(gp) # 20000308 <__malloc_sbrk_start>
    5032:	85a6                	mv	a1,s1
    5034:	854a                	mv	a0,s2
    5036:	2a55                	jal	51ea <_sbrk_r>
    5038:	59fd                	li	s3,-1
    503a:	07351963          	bne	a0,s3,50ac <_malloc_r+0xbc>
    503e:	47b1                	li	a5,12
    5040:	00f92023          	sw	a5,0(s2)
    5044:	854a                	mv	a0,s2
    5046:	07b000ef          	jal	ra,58c0 <__malloc_unlock>
    504a:	a029                	j	5054 <_malloc_r+0x64>
    504c:	fc04d0e3          	bgez	s1,500c <_malloc_r+0x1c>
    5050:	47b1                	li	a5,12
    5052:	c11c                	sw	a5,0(a0)
    5054:	4501                	li	a0,0
    5056:	40f2                	lw	ra,28(sp)
    5058:	4462                	lw	s0,24(sp)
    505a:	44d2                	lw	s1,20(sp)
    505c:	4942                	lw	s2,16(sp)
    505e:	49b2                	lw	s3,12(sp)
    5060:	6105                	addi	sp,sp,32
    5062:	8082                	ret
    5064:	401c                	lw	a5,0(s0)
    5066:	8f85                	sub	a5,a5,s1
    5068:	0207cf63          	bltz	a5,50a6 <_malloc_r+0xb6>
    506c:	46ad                	li	a3,11
    506e:	00f6f663          	bgeu	a3,a5,507a <_malloc_r+0x8a>
    5072:	c01c                	sw	a5,0(s0)
    5074:	943e                	add	s0,s0,a5
    5076:	c004                	sw	s1,0(s0)
    5078:	a031                	j	5084 <_malloc_r+0x94>
    507a:	405c                	lw	a5,4(s0)
    507c:	02871363          	bne	a4,s0,50a2 <_malloc_r+0xb2>
    5080:	92f1a623          	sw	a5,-1748(gp) # 20000304 <__malloc_free_list>
    5084:	854a                	mv	a0,s2
    5086:	03b000ef          	jal	ra,58c0 <__malloc_unlock>
    508a:	00b40513          	addi	a0,s0,11
    508e:	00440793          	addi	a5,s0,4
    5092:	9961                	andi	a0,a0,-8
    5094:	40f50733          	sub	a4,a0,a5
    5098:	df5d                	beqz	a4,5056 <_malloc_r+0x66>
    509a:	943a                	add	s0,s0,a4
    509c:	8f89                	sub	a5,a5,a0
    509e:	c01c                	sw	a5,0(s0)
    50a0:	bf5d                	j	5056 <_malloc_r+0x66>
    50a2:	c35c                	sw	a5,4(a4)
    50a4:	b7c5                	j	5084 <_malloc_r+0x94>
    50a6:	8722                	mv	a4,s0
    50a8:	4040                	lw	s0,4(s0)
    50aa:	bf95                	j	501e <_malloc_r+0x2e>
    50ac:	00350413          	addi	s0,a0,3
    50b0:	9871                	andi	s0,s0,-4
    50b2:	fc8502e3          	beq	a0,s0,5076 <_malloc_r+0x86>
    50b6:	40a405b3          	sub	a1,s0,a0
    50ba:	854a                	mv	a0,s2
    50bc:	223d                	jal	51ea <_sbrk_r>
    50be:	fb351ce3          	bne	a0,s3,5076 <_malloc_r+0x86>
    50c2:	bfb5                	j	503e <_malloc_r+0x4e>

000050c4 <iprintf>:
    50c4:	7139                	addi	sp,sp,-64
    50c6:	da3e                	sw	a5,52(sp)
    50c8:	d22e                	sw	a1,36(sp)
    50ca:	d432                	sw	a2,40(sp)
    50cc:	d636                	sw	a3,44(sp)
    50ce:	d83a                	sw	a4,48(sp)
    50d0:	dc42                	sw	a6,56(sp)
    50d2:	de46                	sw	a7,60(sp)
    50d4:	82418793          	addi	a5,gp,-2012 # 200001fc <_impure_ptr>
    50d8:	cc22                	sw	s0,24(sp)
    50da:	4380                	lw	s0,0(a5)
    50dc:	ca26                	sw	s1,20(sp)
    50de:	ce06                	sw	ra,28(sp)
    50e0:	84aa                	mv	s1,a0
    50e2:	c409                	beqz	s0,50ec <iprintf+0x28>
    50e4:	4c1c                	lw	a5,24(s0)
    50e6:	e399                	bnez	a5,50ec <iprintf+0x28>
    50e8:	8522                	mv	a0,s0
    50ea:	2385                	jal	564a <__sinit>
    50ec:	440c                	lw	a1,8(s0)
    50ee:	1054                	addi	a3,sp,36
    50f0:	8626                	mv	a2,s1
    50f2:	8522                	mv	a0,s0
    50f4:	c636                	sw	a3,12(sp)
    50f6:	03b000ef          	jal	ra,5930 <_vfiprintf_r>
    50fa:	40f2                	lw	ra,28(sp)
    50fc:	4462                	lw	s0,24(sp)
    50fe:	44d2                	lw	s1,20(sp)
    5100:	6121                	addi	sp,sp,64
    5102:	8082                	ret

00005104 <_puts_r>:
    5104:	1101                	addi	sp,sp,-32
    5106:	ca26                	sw	s1,20(sp)
    5108:	c84a                	sw	s2,16(sp)
    510a:	ce06                	sw	ra,28(sp)
    510c:	cc22                	sw	s0,24(sp)
    510e:	c64e                	sw	s3,12(sp)
    5110:	c452                	sw	s4,8(sp)
    5112:	84aa                	mv	s1,a0
    5114:	892e                	mv	s2,a1
    5116:	c501                	beqz	a0,511e <_puts_r+0x1a>
    5118:	4d1c                	lw	a5,24(a0)
    511a:	e391                	bnez	a5,511e <_puts_r+0x1a>
    511c:	233d                	jal	564a <__sinit>
    511e:	4c9c                	lw	a5,24(s1)
    5120:	4480                	lw	s0,8(s1)
    5122:	e399                	bnez	a5,5128 <_puts_r+0x24>
    5124:	8526                	mv	a0,s1
    5126:	2315                	jal	564a <__sinit>
    5128:	00001797          	auipc	a5,0x1
    512c:	1f078793          	addi	a5,a5,496 # 6318 <__sf_fake_stdin>
    5130:	02f41c63          	bne	s0,a5,5168 <_puts_r+0x64>
    5134:	40c0                	lw	s0,4(s1)
    5136:	00c45783          	lhu	a5,12(s0)
    513a:	8ba1                	andi	a5,a5,8
    513c:	c7b1                	beqz	a5,5188 <_puts_r+0x84>
    513e:	481c                	lw	a5,16(s0)
    5140:	c7a1                	beqz	a5,5188 <_puts_r+0x84>
    5142:	59fd                	li	s3,-1
    5144:	4a29                	li	s4,10
    5146:	441c                	lw	a5,8(s0)
    5148:	00094583          	lbu	a1,0(s2)
    514c:	17fd                	addi	a5,a5,-1
    514e:	e9b1                	bnez	a1,51a2 <_puts_r+0x9e>
    5150:	c41c                	sw	a5,8(s0)
    5152:	0607de63          	bgez	a5,51ce <_puts_r+0xca>
    5156:	8622                	mv	a2,s0
    5158:	45a9                	li	a1,10
    515a:	8526                	mv	a0,s1
    515c:	20c1                	jal	521c <__swbuf_r>
    515e:	57fd                	li	a5,-1
    5160:	02f50863          	beq	a0,a5,5190 <_puts_r+0x8c>
    5164:	4529                	li	a0,10
    5166:	a035                	j	5192 <_puts_r+0x8e>
    5168:	00001797          	auipc	a5,0x1
    516c:	1d078793          	addi	a5,a5,464 # 6338 <__sf_fake_stdout>
    5170:	00f41463          	bne	s0,a5,5178 <_puts_r+0x74>
    5174:	4480                	lw	s0,8(s1)
    5176:	b7c1                	j	5136 <_puts_r+0x32>
    5178:	00001797          	auipc	a5,0x1
    517c:	18078793          	addi	a5,a5,384 # 62f8 <__sf_fake_stderr>
    5180:	faf41be3          	bne	s0,a5,5136 <_puts_r+0x32>
    5184:	44c0                	lw	s0,12(s1)
    5186:	bf45                	j	5136 <_puts_r+0x32>
    5188:	85a2                	mv	a1,s0
    518a:	8526                	mv	a0,s1
    518c:	2a81                	jal	52dc <__swsetup_r>
    518e:	d955                	beqz	a0,5142 <_puts_r+0x3e>
    5190:	557d                	li	a0,-1
    5192:	40f2                	lw	ra,28(sp)
    5194:	4462                	lw	s0,24(sp)
    5196:	44d2                	lw	s1,20(sp)
    5198:	4942                	lw	s2,16(sp)
    519a:	49b2                	lw	s3,12(sp)
    519c:	4a22                	lw	s4,8(sp)
    519e:	6105                	addi	sp,sp,32
    51a0:	8082                	ret
    51a2:	c41c                	sw	a5,8(s0)
    51a4:	0905                	addi	s2,s2,1
    51a6:	0007d763          	bgez	a5,51b4 <_puts_r+0xb0>
    51aa:	4c18                	lw	a4,24(s0)
    51ac:	00e7cb63          	blt	a5,a4,51c2 <_puts_r+0xbe>
    51b0:	01458963          	beq	a1,s4,51c2 <_puts_r+0xbe>
    51b4:	401c                	lw	a5,0(s0)
    51b6:	00178713          	addi	a4,a5,1
    51ba:	c018                	sw	a4,0(s0)
    51bc:	00b78023          	sb	a1,0(a5)
    51c0:	b759                	j	5146 <_puts_r+0x42>
    51c2:	8622                	mv	a2,s0
    51c4:	8526                	mv	a0,s1
    51c6:	2899                	jal	521c <__swbuf_r>
    51c8:	f7351fe3          	bne	a0,s3,5146 <_puts_r+0x42>
    51cc:	b7d1                	j	5190 <_puts_r+0x8c>
    51ce:	401c                	lw	a5,0(s0)
    51d0:	00178713          	addi	a4,a5,1
    51d4:	c018                	sw	a4,0(s0)
    51d6:	4729                	li	a4,10
    51d8:	00e78023          	sb	a4,0(a5)
    51dc:	b761                	j	5164 <_puts_r+0x60>

000051de <puts>:
    51de:	82418793          	addi	a5,gp,-2012 # 200001fc <_impure_ptr>
    51e2:	85aa                	mv	a1,a0
    51e4:	4388                	lw	a0,0(a5)
    51e6:	f1fff06f          	j	5104 <_puts_r>

000051ea <_sbrk_r>:
    51ea:	1141                	addi	sp,sp,-16
    51ec:	c422                	sw	s0,8(sp)
    51ee:	842a                	mv	s0,a0
    51f0:	852e                	mv	a0,a1
    51f2:	1fffc797          	auipc	a5,0x1fffc
    51f6:	1c07a923          	sw	zero,466(a5) # 200013c4 <errno>
    51fa:	c606                	sw	ra,12(sp)
    51fc:	c49ff0ef          	jal	ra,4e44 <_sbrk>
    5200:	57fd                	li	a5,-1
    5202:	00f51963          	bne	a0,a5,5214 <_sbrk_r+0x2a>
    5206:	1fffc797          	auipc	a5,0x1fffc
    520a:	1be78793          	addi	a5,a5,446 # 200013c4 <errno>
    520e:	439c                	lw	a5,0(a5)
    5210:	c391                	beqz	a5,5214 <_sbrk_r+0x2a>
    5212:	c01c                	sw	a5,0(s0)
    5214:	40b2                	lw	ra,12(sp)
    5216:	4422                	lw	s0,8(sp)
    5218:	0141                	addi	sp,sp,16
    521a:	8082                	ret

0000521c <__swbuf_r>:
    521c:	1101                	addi	sp,sp,-32
    521e:	cc22                	sw	s0,24(sp)
    5220:	ca26                	sw	s1,20(sp)
    5222:	c84a                	sw	s2,16(sp)
    5224:	ce06                	sw	ra,28(sp)
    5226:	c64e                	sw	s3,12(sp)
    5228:	84aa                	mv	s1,a0
    522a:	892e                	mv	s2,a1
    522c:	8432                	mv	s0,a2
    522e:	c501                	beqz	a0,5236 <__swbuf_r+0x1a>
    5230:	4d1c                	lw	a5,24(a0)
    5232:	e391                	bnez	a5,5236 <__swbuf_r+0x1a>
    5234:	2919                	jal	564a <__sinit>
    5236:	00001797          	auipc	a5,0x1
    523a:	0e278793          	addi	a5,a5,226 # 6318 <__sf_fake_stdin>
    523e:	06f41963          	bne	s0,a5,52b0 <__swbuf_r+0x94>
    5242:	40c0                	lw	s0,4(s1)
    5244:	4c1c                	lw	a5,24(s0)
    5246:	c41c                	sw	a5,8(s0)
    5248:	00c45783          	lhu	a5,12(s0)
    524c:	8ba1                	andi	a5,a5,8
    524e:	c3c9                	beqz	a5,52d0 <__swbuf_r+0xb4>
    5250:	481c                	lw	a5,16(s0)
    5252:	cfbd                	beqz	a5,52d0 <__swbuf_r+0xb4>
    5254:	481c                	lw	a5,16(s0)
    5256:	4008                	lw	a0,0(s0)
    5258:	0ff97993          	andi	s3,s2,255
    525c:	0ff97913          	andi	s2,s2,255
    5260:	8d1d                	sub	a0,a0,a5
    5262:	485c                	lw	a5,20(s0)
    5264:	00f54663          	blt	a0,a5,5270 <__swbuf_r+0x54>
    5268:	85a2                	mv	a1,s0
    526a:	8526                	mv	a0,s1
    526c:	2c75                	jal	5528 <_fflush_r>
    526e:	e52d                	bnez	a0,52d8 <__swbuf_r+0xbc>
    5270:	441c                	lw	a5,8(s0)
    5272:	0505                	addi	a0,a0,1
    5274:	17fd                	addi	a5,a5,-1
    5276:	c41c                	sw	a5,8(s0)
    5278:	401c                	lw	a5,0(s0)
    527a:	00178713          	addi	a4,a5,1
    527e:	c018                	sw	a4,0(s0)
    5280:	01378023          	sb	s3,0(a5)
    5284:	485c                	lw	a5,20(s0)
    5286:	00a78963          	beq	a5,a0,5298 <__swbuf_r+0x7c>
    528a:	00c45783          	lhu	a5,12(s0)
    528e:	8b85                	andi	a5,a5,1
    5290:	cb81                	beqz	a5,52a0 <__swbuf_r+0x84>
    5292:	47a9                	li	a5,10
    5294:	00f91663          	bne	s2,a5,52a0 <__swbuf_r+0x84>
    5298:	85a2                	mv	a1,s0
    529a:	8526                	mv	a0,s1
    529c:	2471                	jal	5528 <_fflush_r>
    529e:	ed0d                	bnez	a0,52d8 <__swbuf_r+0xbc>
    52a0:	40f2                	lw	ra,28(sp)
    52a2:	4462                	lw	s0,24(sp)
    52a4:	854a                	mv	a0,s2
    52a6:	44d2                	lw	s1,20(sp)
    52a8:	4942                	lw	s2,16(sp)
    52aa:	49b2                	lw	s3,12(sp)
    52ac:	6105                	addi	sp,sp,32
    52ae:	8082                	ret
    52b0:	00001797          	auipc	a5,0x1
    52b4:	08878793          	addi	a5,a5,136 # 6338 <__sf_fake_stdout>
    52b8:	00f41463          	bne	s0,a5,52c0 <__swbuf_r+0xa4>
    52bc:	4480                	lw	s0,8(s1)
    52be:	b759                	j	5244 <__swbuf_r+0x28>
    52c0:	00001797          	auipc	a5,0x1
    52c4:	03878793          	addi	a5,a5,56 # 62f8 <__sf_fake_stderr>
    52c8:	f6f41ee3          	bne	s0,a5,5244 <__swbuf_r+0x28>
    52cc:	44c0                	lw	s0,12(s1)
    52ce:	bf9d                	j	5244 <__swbuf_r+0x28>
    52d0:	85a2                	mv	a1,s0
    52d2:	8526                	mv	a0,s1
    52d4:	2021                	jal	52dc <__swsetup_r>
    52d6:	dd3d                	beqz	a0,5254 <__swbuf_r+0x38>
    52d8:	597d                	li	s2,-1
    52da:	b7d9                	j	52a0 <__swbuf_r+0x84>

000052dc <__swsetup_r>:
    52dc:	1141                	addi	sp,sp,-16
    52de:	82418793          	addi	a5,gp,-2012 # 200001fc <_impure_ptr>
    52e2:	c226                	sw	s1,4(sp)
    52e4:	4384                	lw	s1,0(a5)
    52e6:	c422                	sw	s0,8(sp)
    52e8:	c04a                	sw	s2,0(sp)
    52ea:	c606                	sw	ra,12(sp)
    52ec:	892a                	mv	s2,a0
    52ee:	842e                	mv	s0,a1
    52f0:	c489                	beqz	s1,52fa <__swsetup_r+0x1e>
    52f2:	4c9c                	lw	a5,24(s1)
    52f4:	e399                	bnez	a5,52fa <__swsetup_r+0x1e>
    52f6:	8526                	mv	a0,s1
    52f8:	2e89                	jal	564a <__sinit>
    52fa:	00001797          	auipc	a5,0x1
    52fe:	01e78793          	addi	a5,a5,30 # 6318 <__sf_fake_stdin>
    5302:	02f41c63          	bne	s0,a5,533a <__swsetup_r+0x5e>
    5306:	40c0                	lw	s0,4(s1)
    5308:	00c41703          	lh	a4,12(s0)
    530c:	01071793          	slli	a5,a4,0x10
    5310:	83c1                	srli	a5,a5,0x10
    5312:	0087f693          	andi	a3,a5,8
    5316:	eebd                	bnez	a3,5394 <__swsetup_r+0xb8>
    5318:	0107f693          	andi	a3,a5,16
    531c:	ee9d                	bnez	a3,535a <__swsetup_r+0x7e>
    531e:	47a5                	li	a5,9
    5320:	00f92023          	sw	a5,0(s2)
    5324:	04076713          	ori	a4,a4,64
    5328:	00e41623          	sh	a4,12(s0)
    532c:	557d                	li	a0,-1
    532e:	40b2                	lw	ra,12(sp)
    5330:	4422                	lw	s0,8(sp)
    5332:	4492                	lw	s1,4(sp)
    5334:	4902                	lw	s2,0(sp)
    5336:	0141                	addi	sp,sp,16
    5338:	8082                	ret
    533a:	00001797          	auipc	a5,0x1
    533e:	ffe78793          	addi	a5,a5,-2 # 6338 <__sf_fake_stdout>
    5342:	00f41463          	bne	s0,a5,534a <__swsetup_r+0x6e>
    5346:	4480                	lw	s0,8(s1)
    5348:	b7c1                	j	5308 <__swsetup_r+0x2c>
    534a:	00001797          	auipc	a5,0x1
    534e:	fae78793          	addi	a5,a5,-82 # 62f8 <__sf_fake_stderr>
    5352:	faf41be3          	bne	s0,a5,5308 <__swsetup_r+0x2c>
    5356:	44c0                	lw	s0,12(s1)
    5358:	bf45                	j	5308 <__swsetup_r+0x2c>
    535a:	8b91                	andi	a5,a5,4
    535c:	c795                	beqz	a5,5388 <__swsetup_r+0xac>
    535e:	584c                	lw	a1,52(s0)
    5360:	c991                	beqz	a1,5374 <__swsetup_r+0x98>
    5362:	04440793          	addi	a5,s0,68
    5366:	00f58563          	beq	a1,a5,5370 <__swsetup_r+0x94>
    536a:	854a                	mv	a0,s2
    536c:	bddff0ef          	jal	ra,4f48 <_free_r>
    5370:	02042a23          	sw	zero,52(s0)
    5374:	00c45783          	lhu	a5,12(s0)
    5378:	00042223          	sw	zero,4(s0)
    537c:	fdb7f793          	andi	a5,a5,-37
    5380:	00f41623          	sh	a5,12(s0)
    5384:	481c                	lw	a5,16(s0)
    5386:	c01c                	sw	a5,0(s0)
    5388:	00c45783          	lhu	a5,12(s0)
    538c:	0087e793          	ori	a5,a5,8
    5390:	00f41623          	sh	a5,12(s0)
    5394:	481c                	lw	a5,16(s0)
    5396:	ef81                	bnez	a5,53ae <__swsetup_r+0xd2>
    5398:	00c45783          	lhu	a5,12(s0)
    539c:	20000713          	li	a4,512
    53a0:	2807f793          	andi	a5,a5,640
    53a4:	00e78563          	beq	a5,a4,53ae <__swsetup_r+0xd2>
    53a8:	85a2                	mv	a1,s0
    53aa:	854a                	mv	a0,s2
    53ac:	2985                	jal	581c <__smakebuf_r>
    53ae:	00c45783          	lhu	a5,12(s0)
    53b2:	0017f713          	andi	a4,a5,1
    53b6:	c705                	beqz	a4,53de <__swsetup_r+0x102>
    53b8:	485c                	lw	a5,20(s0)
    53ba:	00042423          	sw	zero,8(s0)
    53be:	40f007b3          	neg	a5,a5
    53c2:	cc1c                	sw	a5,24(s0)
    53c4:	481c                	lw	a5,16(s0)
    53c6:	4501                	li	a0,0
    53c8:	f3bd                	bnez	a5,532e <__swsetup_r+0x52>
    53ca:	00c41783          	lh	a5,12(s0)
    53ce:	0807f713          	andi	a4,a5,128
    53d2:	df31                	beqz	a4,532e <__swsetup_r+0x52>
    53d4:	0407e793          	ori	a5,a5,64
    53d8:	00f41623          	sh	a5,12(s0)
    53dc:	bf81                	j	532c <__swsetup_r+0x50>
    53de:	8b89                	andi	a5,a5,2
    53e0:	4701                	li	a4,0
    53e2:	e391                	bnez	a5,53e6 <__swsetup_r+0x10a>
    53e4:	4858                	lw	a4,20(s0)
    53e6:	c418                	sw	a4,8(s0)
    53e8:	bff1                	j	53c4 <__swsetup_r+0xe8>

000053ea <__sflush_r>:
    53ea:	00c5d783          	lhu	a5,12(a1)
    53ee:	1101                	addi	sp,sp,-32
    53f0:	cc22                	sw	s0,24(sp)
    53f2:	ca26                	sw	s1,20(sp)
    53f4:	ce06                	sw	ra,28(sp)
    53f6:	c84a                	sw	s2,16(sp)
    53f8:	c64e                	sw	s3,12(sp)
    53fa:	0087f713          	andi	a4,a5,8
    53fe:	84aa                	mv	s1,a0
    5400:	842e                	mv	s0,a1
    5402:	ef79                	bnez	a4,54e0 <__sflush_r+0xf6>
    5404:	41d8                	lw	a4,4(a1)
    5406:	00e04d63          	bgtz	a4,5420 <__sflush_r+0x36>
    540a:	41b8                	lw	a4,64(a1)
    540c:	00e04a63          	bgtz	a4,5420 <__sflush_r+0x36>
    5410:	4501                	li	a0,0
    5412:	40f2                	lw	ra,28(sp)
    5414:	4462                	lw	s0,24(sp)
    5416:	44d2                	lw	s1,20(sp)
    5418:	4942                	lw	s2,16(sp)
    541a:	49b2                	lw	s3,12(sp)
    541c:	6105                	addi	sp,sp,32
    541e:	8082                	ret
    5420:	5458                	lw	a4,44(s0)
    5422:	d77d                	beqz	a4,5410 <__sflush_r+0x26>
    5424:	0004a903          	lw	s2,0(s1)
    5428:	01379693          	slli	a3,a5,0x13
    542c:	0004a023          	sw	zero,0(s1)
    5430:	0606de63          	bgez	a3,54ac <__sflush_r+0xc2>
    5434:	4870                	lw	a2,84(s0)
    5436:	00c45783          	lhu	a5,12(s0)
    543a:	8b91                	andi	a5,a5,4
    543c:	c799                	beqz	a5,544a <__sflush_r+0x60>
    543e:	405c                	lw	a5,4(s0)
    5440:	8e1d                	sub	a2,a2,a5
    5442:	585c                	lw	a5,52(s0)
    5444:	c399                	beqz	a5,544a <__sflush_r+0x60>
    5446:	403c                	lw	a5,64(s0)
    5448:	8e1d                	sub	a2,a2,a5
    544a:	545c                	lw	a5,44(s0)
    544c:	500c                	lw	a1,32(s0)
    544e:	4681                	li	a3,0
    5450:	8526                	mv	a0,s1
    5452:	9782                	jalr	a5
    5454:	57fd                	li	a5,-1
    5456:	00c45703          	lhu	a4,12(s0)
    545a:	00f51d63          	bne	a0,a5,5474 <__sflush_r+0x8a>
    545e:	4094                	lw	a3,0(s1)
    5460:	47f5                	li	a5,29
    5462:	06d7e963          	bltu	a5,a3,54d4 <__sflush_r+0xea>
    5466:	204007b7          	lui	a5,0x20400
    546a:	0785                	addi	a5,a5,1
    546c:	00d7d7b3          	srl	a5,a5,a3
    5470:	8b85                	andi	a5,a5,1
    5472:	c3ad                	beqz	a5,54d4 <__sflush_r+0xea>
    5474:	481c                	lw	a5,16(s0)
    5476:	00042223          	sw	zero,4(s0)
    547a:	c01c                	sw	a5,0(s0)
    547c:	01371793          	slli	a5,a4,0x13
    5480:	0007d863          	bgez	a5,5490 <__sflush_r+0xa6>
    5484:	57fd                	li	a5,-1
    5486:	00f51463          	bne	a0,a5,548e <__sflush_r+0xa4>
    548a:	409c                	lw	a5,0(s1)
    548c:	e391                	bnez	a5,5490 <__sflush_r+0xa6>
    548e:	c868                	sw	a0,84(s0)
    5490:	584c                	lw	a1,52(s0)
    5492:	0124a023          	sw	s2,0(s1)
    5496:	ddad                	beqz	a1,5410 <__sflush_r+0x26>
    5498:	04440793          	addi	a5,s0,68
    549c:	00f58563          	beq	a1,a5,54a6 <__sflush_r+0xbc>
    54a0:	8526                	mv	a0,s1
    54a2:	aa7ff0ef          	jal	ra,4f48 <_free_r>
    54a6:	02042a23          	sw	zero,52(s0)
    54aa:	b79d                	j	5410 <__sflush_r+0x26>
    54ac:	500c                	lw	a1,32(s0)
    54ae:	4601                	li	a2,0
    54b0:	4685                	li	a3,1
    54b2:	8526                	mv	a0,s1
    54b4:	9702                	jalr	a4
    54b6:	57fd                	li	a5,-1
    54b8:	862a                	mv	a2,a0
    54ba:	f6f51ee3          	bne	a0,a5,5436 <__sflush_r+0x4c>
    54be:	409c                	lw	a5,0(s1)
    54c0:	dbbd                	beqz	a5,5436 <__sflush_r+0x4c>
    54c2:	4775                	li	a4,29
    54c4:	00e78563          	beq	a5,a4,54ce <__sflush_r+0xe4>
    54c8:	4759                	li	a4,22
    54ca:	04e79463          	bne	a5,a4,5512 <__sflush_r+0x128>
    54ce:	0124a023          	sw	s2,0(s1)
    54d2:	bf3d                	j	5410 <__sflush_r+0x26>
    54d4:	04076713          	ori	a4,a4,64
    54d8:	00e41623          	sh	a4,12(s0)
    54dc:	557d                	li	a0,-1
    54de:	bf15                	j	5412 <__sflush_r+0x28>
    54e0:	0105a983          	lw	s3,16(a1)
    54e4:	f20986e3          	beqz	s3,5410 <__sflush_r+0x26>
    54e8:	0005a903          	lw	s2,0(a1)
    54ec:	8b8d                	andi	a5,a5,3
    54ee:	0135a023          	sw	s3,0(a1)
    54f2:	41390933          	sub	s2,s2,s3
    54f6:	4701                	li	a4,0
    54f8:	e391                	bnez	a5,54fc <__sflush_r+0x112>
    54fa:	49d8                	lw	a4,20(a1)
    54fc:	c418                	sw	a4,8(s0)
    54fe:	f12059e3          	blez	s2,5410 <__sflush_r+0x26>
    5502:	541c                	lw	a5,40(s0)
    5504:	500c                	lw	a1,32(s0)
    5506:	86ca                	mv	a3,s2
    5508:	864e                	mv	a2,s3
    550a:	8526                	mv	a0,s1
    550c:	9782                	jalr	a5
    550e:	00a04963          	bgtz	a0,5520 <__sflush_r+0x136>
    5512:	00c45783          	lhu	a5,12(s0)
    5516:	0407e793          	ori	a5,a5,64
    551a:	00f41623          	sh	a5,12(s0)
    551e:	bf7d                	j	54dc <__sflush_r+0xf2>
    5520:	99aa                	add	s3,s3,a0
    5522:	40a90933          	sub	s2,s2,a0
    5526:	bfe1                	j	54fe <__sflush_r+0x114>

00005528 <_fflush_r>:
    5528:	499c                	lw	a5,16(a1)
    552a:	c3a5                	beqz	a5,558a <_fflush_r+0x62>
    552c:	1101                	addi	sp,sp,-32
    552e:	cc22                	sw	s0,24(sp)
    5530:	ce06                	sw	ra,28(sp)
    5532:	842a                	mv	s0,a0
    5534:	c511                	beqz	a0,5540 <_fflush_r+0x18>
    5536:	4d1c                	lw	a5,24(a0)
    5538:	e781                	bnez	a5,5540 <_fflush_r+0x18>
    553a:	c62e                	sw	a1,12(sp)
    553c:	2239                	jal	564a <__sinit>
    553e:	45b2                	lw	a1,12(sp)
    5540:	00001797          	auipc	a5,0x1
    5544:	dd878793          	addi	a5,a5,-552 # 6318 <__sf_fake_stdin>
    5548:	00f59c63          	bne	a1,a5,5560 <_fflush_r+0x38>
    554c:	404c                	lw	a1,4(s0)
    554e:	00c59783          	lh	a5,12(a1)
    5552:	c79d                	beqz	a5,5580 <_fflush_r+0x58>
    5554:	8522                	mv	a0,s0
    5556:	4462                	lw	s0,24(sp)
    5558:	40f2                	lw	ra,28(sp)
    555a:	6105                	addi	sp,sp,32
    555c:	e8fff06f          	j	53ea <__sflush_r>
    5560:	00001797          	auipc	a5,0x1
    5564:	dd878793          	addi	a5,a5,-552 # 6338 <__sf_fake_stdout>
    5568:	00f59463          	bne	a1,a5,5570 <_fflush_r+0x48>
    556c:	440c                	lw	a1,8(s0)
    556e:	b7c5                	j	554e <_fflush_r+0x26>
    5570:	00001797          	auipc	a5,0x1
    5574:	d8878793          	addi	a5,a5,-632 # 62f8 <__sf_fake_stderr>
    5578:	fcf59be3          	bne	a1,a5,554e <_fflush_r+0x26>
    557c:	444c                	lw	a1,12(s0)
    557e:	bfc1                	j	554e <_fflush_r+0x26>
    5580:	40f2                	lw	ra,28(sp)
    5582:	4462                	lw	s0,24(sp)
    5584:	4501                	li	a0,0
    5586:	6105                	addi	sp,sp,32
    5588:	8082                	ret
    558a:	4501                	li	a0,0
    558c:	8082                	ret

0000558e <std>:
    558e:	1141                	addi	sp,sp,-16
    5590:	c422                	sw	s0,8(sp)
    5592:	c606                	sw	ra,12(sp)
    5594:	842a                	mv	s0,a0
    5596:	00b51623          	sh	a1,12(a0)
    559a:	00c51723          	sh	a2,14(a0)
    559e:	00052023          	sw	zero,0(a0)
    55a2:	00052223          	sw	zero,4(a0)
    55a6:	00052423          	sw	zero,8(a0)
    55aa:	06052223          	sw	zero,100(a0)
    55ae:	00052823          	sw	zero,16(a0)
    55b2:	00052a23          	sw	zero,20(a0)
    55b6:	00052c23          	sw	zero,24(a0)
    55ba:	4621                	li	a2,8
    55bc:	4581                	li	a1,0
    55be:	05c50513          	addi	a0,a0,92
    55c2:	bdffa0ef          	jal	ra,1a0 <memset>
    55c6:	00001797          	auipc	a5,0x1
    55ca:	9c478793          	addi	a5,a5,-1596 # 5f8a <__sread>
    55ce:	d05c                	sw	a5,36(s0)
    55d0:	00001797          	auipc	a5,0x1
    55d4:	9ea78793          	addi	a5,a5,-1558 # 5fba <__swrite>
    55d8:	d41c                	sw	a5,40(s0)
    55da:	00001797          	auipc	a5,0x1
    55de:	a2e78793          	addi	a5,a5,-1490 # 6008 <__sseek>
    55e2:	d45c                	sw	a5,44(s0)
    55e4:	00001797          	auipc	a5,0x1
    55e8:	a5a78793          	addi	a5,a5,-1446 # 603e <__sclose>
    55ec:	d000                	sw	s0,32(s0)
    55ee:	d81c                	sw	a5,48(s0)
    55f0:	40b2                	lw	ra,12(sp)
    55f2:	4422                	lw	s0,8(sp)
    55f4:	0141                	addi	sp,sp,16
    55f6:	8082                	ret

000055f8 <_cleanup_r>:
    55f8:	00000597          	auipc	a1,0x0
    55fc:	f3058593          	addi	a1,a1,-208 # 5528 <_fflush_r>
    5600:	aa99                	j	5756 <_fwalk_reent>

00005602 <__sfmoreglue>:
    5602:	1141                	addi	sp,sp,-16
    5604:	c226                	sw	s1,4(sp)
    5606:	06800613          	li	a2,104
    560a:	fff58493          	addi	s1,a1,-1
    560e:	02c484b3          	mul	s1,s1,a2
    5612:	c04a                	sw	s2,0(sp)
    5614:	892e                	mv	s2,a1
    5616:	c422                	sw	s0,8(sp)
    5618:	c606                	sw	ra,12(sp)
    561a:	07448593          	addi	a1,s1,116
    561e:	9d3ff0ef          	jal	ra,4ff0 <_malloc_r>
    5622:	842a                	mv	s0,a0
    5624:	cd01                	beqz	a0,563c <__sfmoreglue+0x3a>
    5626:	00052023          	sw	zero,0(a0)
    562a:	01252223          	sw	s2,4(a0)
    562e:	0531                	addi	a0,a0,12
    5630:	c408                	sw	a0,8(s0)
    5632:	06848613          	addi	a2,s1,104
    5636:	4581                	li	a1,0
    5638:	b69fa0ef          	jal	ra,1a0 <memset>
    563c:	8522                	mv	a0,s0
    563e:	40b2                	lw	ra,12(sp)
    5640:	4422                	lw	s0,8(sp)
    5642:	4492                	lw	s1,4(sp)
    5644:	4902                	lw	s2,0(sp)
    5646:	0141                	addi	sp,sp,16
    5648:	8082                	ret

0000564a <__sinit>:
    564a:	4d1c                	lw	a5,24(a0)
    564c:	e7a5                	bnez	a5,56b4 <__sinit+0x6a>
    564e:	1141                	addi	sp,sp,-16
    5650:	c606                	sw	ra,12(sp)
    5652:	c422                	sw	s0,8(sp)
    5654:	00000797          	auipc	a5,0x0
    5658:	fa478793          	addi	a5,a5,-92 # 55f8 <_cleanup_r>
    565c:	d51c                	sw	a5,40(a0)
    565e:	89418793          	addi	a5,gp,-1900 # 2000026c <_global_impure_ptr>
    5662:	439c                	lw	a5,0(a5)
    5664:	04052423          	sw	zero,72(a0)
    5668:	04052623          	sw	zero,76(a0)
    566c:	04052823          	sw	zero,80(a0)
    5670:	00f51463          	bne	a0,a5,5678 <__sinit+0x2e>
    5674:	4785                	li	a5,1
    5676:	cd1c                	sw	a5,24(a0)
    5678:	842a                	mv	s0,a0
    567a:	2835                	jal	56b6 <__sfp>
    567c:	c048                	sw	a0,4(s0)
    567e:	8522                	mv	a0,s0
    5680:	281d                	jal	56b6 <__sfp>
    5682:	c408                	sw	a0,8(s0)
    5684:	8522                	mv	a0,s0
    5686:	2805                	jal	56b6 <__sfp>
    5688:	c448                	sw	a0,12(s0)
    568a:	4048                	lw	a0,4(s0)
    568c:	4601                	li	a2,0
    568e:	4591                	li	a1,4
    5690:	effff0ef          	jal	ra,558e <std>
    5694:	4408                	lw	a0,8(s0)
    5696:	4605                	li	a2,1
    5698:	45a5                	li	a1,9
    569a:	ef5ff0ef          	jal	ra,558e <std>
    569e:	4448                	lw	a0,12(s0)
    56a0:	4609                	li	a2,2
    56a2:	45c9                	li	a1,18
    56a4:	eebff0ef          	jal	ra,558e <std>
    56a8:	4785                	li	a5,1
    56aa:	cc1c                	sw	a5,24(s0)
    56ac:	40b2                	lw	ra,12(sp)
    56ae:	4422                	lw	s0,8(sp)
    56b0:	0141                	addi	sp,sp,16
    56b2:	8082                	ret
    56b4:	8082                	ret

000056b6 <__sfp>:
    56b6:	1141                	addi	sp,sp,-16
    56b8:	89418793          	addi	a5,gp,-1900 # 2000026c <_global_impure_ptr>
    56bc:	c226                	sw	s1,4(sp)
    56be:	4384                	lw	s1,0(a5)
    56c0:	c04a                	sw	s2,0(sp)
    56c2:	c606                	sw	ra,12(sp)
    56c4:	4c9c                	lw	a5,24(s1)
    56c6:	c422                	sw	s0,8(sp)
    56c8:	892a                	mv	s2,a0
    56ca:	e781                	bnez	a5,56d2 <__sfp+0x1c>
    56cc:	8526                	mv	a0,s1
    56ce:	f7dff0ef          	jal	ra,564a <__sinit>
    56d2:	04848493          	addi	s1,s1,72
    56d6:	4480                	lw	s0,8(s1)
    56d8:	40dc                	lw	a5,4(s1)
    56da:	17fd                	addi	a5,a5,-1
    56dc:	0007d663          	bgez	a5,56e8 <__sfp+0x32>
    56e0:	409c                	lw	a5,0(s1)
    56e2:	cfb9                	beqz	a5,5740 <__sfp+0x8a>
    56e4:	4084                	lw	s1,0(s1)
    56e6:	bfc5                	j	56d6 <__sfp+0x20>
    56e8:	00c41703          	lh	a4,12(s0)
    56ec:	e739                	bnez	a4,573a <__sfp+0x84>
    56ee:	77c1                	lui	a5,0xffff0
    56f0:	0785                	addi	a5,a5,1
    56f2:	06042223          	sw	zero,100(s0)
    56f6:	00042023          	sw	zero,0(s0)
    56fa:	00042223          	sw	zero,4(s0)
    56fe:	00042423          	sw	zero,8(s0)
    5702:	c45c                	sw	a5,12(s0)
    5704:	00042823          	sw	zero,16(s0)
    5708:	00042a23          	sw	zero,20(s0)
    570c:	00042c23          	sw	zero,24(s0)
    5710:	4621                	li	a2,8
    5712:	4581                	li	a1,0
    5714:	05c40513          	addi	a0,s0,92
    5718:	a89fa0ef          	jal	ra,1a0 <memset>
    571c:	02042a23          	sw	zero,52(s0)
    5720:	02042c23          	sw	zero,56(s0)
    5724:	04042423          	sw	zero,72(s0)
    5728:	04042623          	sw	zero,76(s0)
    572c:	8522                	mv	a0,s0
    572e:	40b2                	lw	ra,12(sp)
    5730:	4422                	lw	s0,8(sp)
    5732:	4492                	lw	s1,4(sp)
    5734:	4902                	lw	s2,0(sp)
    5736:	0141                	addi	sp,sp,16
    5738:	8082                	ret
    573a:	06840413          	addi	s0,s0,104
    573e:	bf71                	j	56da <__sfp+0x24>
    5740:	4591                	li	a1,4
    5742:	854a                	mv	a0,s2
    5744:	ebfff0ef          	jal	ra,5602 <__sfmoreglue>
    5748:	c088                	sw	a0,0(s1)
    574a:	fd49                	bnez	a0,56e4 <__sfp+0x2e>
    574c:	47b1                	li	a5,12
    574e:	00f92023          	sw	a5,0(s2)
    5752:	4401                	li	s0,0
    5754:	bfe1                	j	572c <__sfp+0x76>

00005756 <_fwalk_reent>:
    5756:	7179                	addi	sp,sp,-48
    5758:	d422                	sw	s0,40(sp)
    575a:	d04a                	sw	s2,32(sp)
    575c:	cc52                	sw	s4,24(sp)
    575e:	ca56                	sw	s5,20(sp)
    5760:	c85a                	sw	s6,16(sp)
    5762:	c65e                	sw	s7,12(sp)
    5764:	d606                	sw	ra,44(sp)
    5766:	d226                	sw	s1,36(sp)
    5768:	ce4e                	sw	s3,28(sp)
    576a:	8a2a                	mv	s4,a0
    576c:	8aae                	mv	s5,a1
    576e:	04850413          	addi	s0,a0,72
    5772:	4901                	li	s2,0
    5774:	4b05                	li	s6,1
    5776:	5bfd                	li	s7,-1
    5778:	ec09                	bnez	s0,5792 <_fwalk_reent+0x3c>
    577a:	50b2                	lw	ra,44(sp)
    577c:	5422                	lw	s0,40(sp)
    577e:	854a                	mv	a0,s2
    5780:	5492                	lw	s1,36(sp)
    5782:	5902                	lw	s2,32(sp)
    5784:	49f2                	lw	s3,28(sp)
    5786:	4a62                	lw	s4,24(sp)
    5788:	4ad2                	lw	s5,20(sp)
    578a:	4b42                	lw	s6,16(sp)
    578c:	4bb2                	lw	s7,12(sp)
    578e:	6145                	addi	sp,sp,48
    5790:	8082                	ret
    5792:	4404                	lw	s1,8(s0)
    5794:	00442983          	lw	s3,4(s0)
    5798:	19fd                	addi	s3,s3,-1
    579a:	0009d463          	bgez	s3,57a2 <_fwalk_reent+0x4c>
    579e:	4000                	lw	s0,0(s0)
    57a0:	bfe1                	j	5778 <_fwalk_reent+0x22>
    57a2:	00c4d783          	lhu	a5,12(s1)
    57a6:	00fb7b63          	bgeu	s6,a5,57bc <_fwalk_reent+0x66>
    57aa:	00e49783          	lh	a5,14(s1)
    57ae:	01778763          	beq	a5,s7,57bc <_fwalk_reent+0x66>
    57b2:	85a6                	mv	a1,s1
    57b4:	8552                	mv	a0,s4
    57b6:	9a82                	jalr	s5
    57b8:	00a96933          	or	s2,s2,a0
    57bc:	06848493          	addi	s1,s1,104
    57c0:	bfe1                	j	5798 <_fwalk_reent+0x42>

000057c2 <__swhatbuf_r>:
    57c2:	7119                	addi	sp,sp,-128
    57c4:	daa6                	sw	s1,116(sp)
    57c6:	84ae                	mv	s1,a1
    57c8:	00e59583          	lh	a1,14(a1)
    57cc:	dca2                	sw	s0,120(sp)
    57ce:	de86                	sw	ra,124(sp)
    57d0:	8432                	mv	s0,a2
    57d2:	0005dc63          	bgez	a1,57ea <__swhatbuf_r+0x28>
    57d6:	00c4d783          	lhu	a5,12(s1)
    57da:	0006a023          	sw	zero,0(a3)
    57de:	0807f793          	andi	a5,a5,128
    57e2:	e785                	bnez	a5,580a <__swhatbuf_r+0x48>
    57e4:	40000793          	li	a5,1024
    57e8:	a01d                	j	580e <__swhatbuf_r+0x4c>
    57ea:	0830                	addi	a2,sp,24
    57ec:	c636                	sw	a3,12(sp)
    57ee:	0bd000ef          	jal	ra,60aa <_fstat_r>
    57f2:	46b2                	lw	a3,12(sp)
    57f4:	fe0541e3          	bltz	a0,57d6 <__swhatbuf_r+0x14>
    57f8:	4772                	lw	a4,28(sp)
    57fa:	67bd                	lui	a5,0xf
    57fc:	8ff9                	and	a5,a5,a4
    57fe:	7779                	lui	a4,0xffffe
    5800:	97ba                	add	a5,a5,a4
    5802:	0017b793          	seqz	a5,a5
    5806:	c29c                	sw	a5,0(a3)
    5808:	bff1                	j	57e4 <__swhatbuf_r+0x22>
    580a:	04000793          	li	a5,64
    580e:	c01c                	sw	a5,0(s0)
    5810:	50f6                	lw	ra,124(sp)
    5812:	5466                	lw	s0,120(sp)
    5814:	54d6                	lw	s1,116(sp)
    5816:	4501                	li	a0,0
    5818:	6109                	addi	sp,sp,128
    581a:	8082                	ret

0000581c <__smakebuf_r>:
    581c:	00c5d783          	lhu	a5,12(a1)
    5820:	1101                	addi	sp,sp,-32
    5822:	cc22                	sw	s0,24(sp)
    5824:	ce06                	sw	ra,28(sp)
    5826:	ca26                	sw	s1,20(sp)
    5828:	c84a                	sw	s2,16(sp)
    582a:	8b89                	andi	a5,a5,2
    582c:	842e                	mv	s0,a1
    582e:	cf89                	beqz	a5,5848 <__smakebuf_r+0x2c>
    5830:	04740793          	addi	a5,s0,71
    5834:	c01c                	sw	a5,0(s0)
    5836:	c81c                	sw	a5,16(s0)
    5838:	4785                	li	a5,1
    583a:	c85c                	sw	a5,20(s0)
    583c:	40f2                	lw	ra,28(sp)
    583e:	4462                	lw	s0,24(sp)
    5840:	44d2                	lw	s1,20(sp)
    5842:	4942                	lw	s2,16(sp)
    5844:	6105                	addi	sp,sp,32
    5846:	8082                	ret
    5848:	0074                	addi	a3,sp,12
    584a:	0030                	addi	a2,sp,8
    584c:	84aa                	mv	s1,a0
    584e:	f75ff0ef          	jal	ra,57c2 <__swhatbuf_r>
    5852:	45a2                	lw	a1,8(sp)
    5854:	892a                	mv	s2,a0
    5856:	8526                	mv	a0,s1
    5858:	f98ff0ef          	jal	ra,4ff0 <_malloc_r>
    585c:	ed01                	bnez	a0,5874 <__smakebuf_r+0x58>
    585e:	00c41783          	lh	a5,12(s0)
    5862:	2007f713          	andi	a4,a5,512
    5866:	fb79                	bnez	a4,583c <__smakebuf_r+0x20>
    5868:	9bf1                	andi	a5,a5,-4
    586a:	0027e793          	ori	a5,a5,2
    586e:	00f41623          	sh	a5,12(s0)
    5872:	bf7d                	j	5830 <__smakebuf_r+0x14>
    5874:	00000797          	auipc	a5,0x0
    5878:	d8478793          	addi	a5,a5,-636 # 55f8 <_cleanup_r>
    587c:	d49c                	sw	a5,40(s1)
    587e:	00c45783          	lhu	a5,12(s0)
    5882:	c008                	sw	a0,0(s0)
    5884:	c808                	sw	a0,16(s0)
    5886:	0807e793          	ori	a5,a5,128
    588a:	00f41623          	sh	a5,12(s0)
    588e:	47a2                	lw	a5,8(sp)
    5890:	c85c                	sw	a5,20(s0)
    5892:	47b2                	lw	a5,12(sp)
    5894:	cf91                	beqz	a5,58b0 <__smakebuf_r+0x94>
    5896:	00e41583          	lh	a1,14(s0)
    589a:	8526                	mv	a0,s1
    589c:	041000ef          	jal	ra,60dc <_isatty_r>
    58a0:	c901                	beqz	a0,58b0 <__smakebuf_r+0x94>
    58a2:	00c45783          	lhu	a5,12(s0)
    58a6:	9bf1                	andi	a5,a5,-4
    58a8:	0017e793          	ori	a5,a5,1
    58ac:	00f41623          	sh	a5,12(s0)
    58b0:	00c45783          	lhu	a5,12(s0)
    58b4:	00f96933          	or	s2,s2,a5
    58b8:	01241623          	sh	s2,12(s0)
    58bc:	b741                	j	583c <__smakebuf_r+0x20>

000058be <__malloc_lock>:
    58be:	8082                	ret

000058c0 <__malloc_unlock>:
    58c0:	8082                	ret

000058c2 <__sfputc_r>:
    58c2:	461c                	lw	a5,8(a2)
    58c4:	17fd                	addi	a5,a5,-1
    58c6:	c61c                	sw	a5,8(a2)
    58c8:	0007da63          	bgez	a5,58dc <__sfputc_r+0x1a>
    58cc:	4e18                	lw	a4,24(a2)
    58ce:	00e7c563          	blt	a5,a4,58d8 <__sfputc_r+0x16>
    58d2:	47a9                	li	a5,10
    58d4:	00f59463          	bne	a1,a5,58dc <__sfputc_r+0x1a>
    58d8:	945ff06f          	j	521c <__swbuf_r>
    58dc:	421c                	lw	a5,0(a2)
    58de:	852e                	mv	a0,a1
    58e0:	00178713          	addi	a4,a5,1
    58e4:	c218                	sw	a4,0(a2)
    58e6:	00b78023          	sb	a1,0(a5)
    58ea:	8082                	ret

000058ec <__sfputs_r>:
    58ec:	1101                	addi	sp,sp,-32
    58ee:	cc22                	sw	s0,24(sp)
    58f0:	ca26                	sw	s1,20(sp)
    58f2:	c84a                	sw	s2,16(sp)
    58f4:	c64e                	sw	s3,12(sp)
    58f6:	c452                	sw	s4,8(sp)
    58f8:	ce06                	sw	ra,28(sp)
    58fa:	892a                	mv	s2,a0
    58fc:	89ae                	mv	s3,a1
    58fe:	8432                	mv	s0,a2
    5900:	00d604b3          	add	s1,a2,a3
    5904:	5a7d                	li	s4,-1
    5906:	00941463          	bne	s0,s1,590e <__sfputs_r+0x22>
    590a:	4501                	li	a0,0
    590c:	a811                	j	5920 <__sfputs_r+0x34>
    590e:	00044583          	lbu	a1,0(s0)
    5912:	864e                	mv	a2,s3
    5914:	854a                	mv	a0,s2
    5916:	fadff0ef          	jal	ra,58c2 <__sfputc_r>
    591a:	0405                	addi	s0,s0,1
    591c:	ff4515e3          	bne	a0,s4,5906 <__sfputs_r+0x1a>
    5920:	40f2                	lw	ra,28(sp)
    5922:	4462                	lw	s0,24(sp)
    5924:	44d2                	lw	s1,20(sp)
    5926:	4942                	lw	s2,16(sp)
    5928:	49b2                	lw	s3,12(sp)
    592a:	4a22                	lw	s4,8(sp)
    592c:	6105                	addi	sp,sp,32
    592e:	8082                	ret

00005930 <_vfiprintf_r>:
    5930:	7135                	addi	sp,sp,-160
    5932:	cd22                	sw	s0,152(sp)
    5934:	cb26                	sw	s1,148(sp)
    5936:	c94a                	sw	s2,144(sp)
    5938:	c74e                	sw	s3,140(sp)
    593a:	cf06                	sw	ra,156(sp)
    593c:	c552                	sw	s4,136(sp)
    593e:	c356                	sw	s5,132(sp)
    5940:	c15a                	sw	s6,128(sp)
    5942:	dede                	sw	s7,124(sp)
    5944:	dce2                	sw	s8,120(sp)
    5946:	dae6                	sw	s9,116(sp)
    5948:	89aa                	mv	s3,a0
    594a:	84ae                	mv	s1,a1
    594c:	8932                	mv	s2,a2
    594e:	8436                	mv	s0,a3
    5950:	c509                	beqz	a0,595a <_vfiprintf_r+0x2a>
    5952:	4d1c                	lw	a5,24(a0)
    5954:	e399                	bnez	a5,595a <_vfiprintf_r+0x2a>
    5956:	cf5ff0ef          	jal	ra,564a <__sinit>
    595a:	00001797          	auipc	a5,0x1
    595e:	9be78793          	addi	a5,a5,-1602 # 6318 <__sf_fake_stdin>
    5962:	0cf49d63          	bne	s1,a5,5a3c <_vfiprintf_r+0x10c>
    5966:	0049a483          	lw	s1,4(s3)
    596a:	00c4d783          	lhu	a5,12(s1)
    596e:	8ba1                	andi	a5,a5,8
    5970:	cbe5                	beqz	a5,5a60 <_vfiprintf_r+0x130>
    5972:	489c                	lw	a5,16(s1)
    5974:	c7f5                	beqz	a5,5a60 <_vfiprintf_r+0x130>
    5976:	02000793          	li	a5,32
    597a:	02f104a3          	sb	a5,41(sp)
    597e:	03000793          	li	a5,48
    5982:	d202                	sw	zero,36(sp)
    5984:	02f10523          	sb	a5,42(sp)
    5988:	c622                	sw	s0,12(sp)
    598a:	02500b93          	li	s7,37
    598e:	00001a97          	auipc	s5,0x1
    5992:	9caa8a93          	addi	s5,s5,-1590 # 6358 <__sf_fake_stdout+0x20>
    5996:	4c05                	li	s8,1
    5998:	4b29                	li	s6,10
    599a:	844a                	mv	s0,s2
    599c:	00044783          	lbu	a5,0(s0)
    59a0:	c399                	beqz	a5,59a6 <_vfiprintf_r+0x76>
    59a2:	0f779263          	bne	a5,s7,5a86 <_vfiprintf_r+0x156>
    59a6:	41240cb3          	sub	s9,s0,s2
    59aa:	000c8e63          	beqz	s9,59c6 <_vfiprintf_r+0x96>
    59ae:	86e6                	mv	a3,s9
    59b0:	864a                	mv	a2,s2
    59b2:	85a6                	mv	a1,s1
    59b4:	854e                	mv	a0,s3
    59b6:	f37ff0ef          	jal	ra,58ec <__sfputs_r>
    59ba:	57fd                	li	a5,-1
    59bc:	1ef50963          	beq	a0,a5,5bae <_vfiprintf_r+0x27e>
    59c0:	5692                	lw	a3,36(sp)
    59c2:	96e6                	add	a3,a3,s9
    59c4:	d236                	sw	a3,36(sp)
    59c6:	00044783          	lbu	a5,0(s0)
    59ca:	1e078263          	beqz	a5,5bae <_vfiprintf_r+0x27e>
    59ce:	57fd                	li	a5,-1
    59d0:	00140913          	addi	s2,s0,1
    59d4:	c802                	sw	zero,16(sp)
    59d6:	ce02                	sw	zero,28(sp)
    59d8:	ca3e                	sw	a5,20(sp)
    59da:	cc02                	sw	zero,24(sp)
    59dc:	040109a3          	sb	zero,83(sp)
    59e0:	d482                	sw	zero,104(sp)
    59e2:	00094583          	lbu	a1,0(s2)
    59e6:	4615                	li	a2,5
    59e8:	8556                	mv	a0,s5
    59ea:	c8eff0ef          	jal	ra,4e78 <memchr>
    59ee:	00190413          	addi	s0,s2,1
    59f2:	47c2                	lw	a5,16(sp)
    59f4:	e959                	bnez	a0,5a8a <_vfiprintf_r+0x15a>
    59f6:	0107f713          	andi	a4,a5,16
    59fa:	c709                	beqz	a4,5a04 <_vfiprintf_r+0xd4>
    59fc:	02000713          	li	a4,32
    5a00:	04e109a3          	sb	a4,83(sp)
    5a04:	0087f713          	andi	a4,a5,8
    5a08:	c709                	beqz	a4,5a12 <_vfiprintf_r+0xe2>
    5a0a:	02b00713          	li	a4,43
    5a0e:	04e109a3          	sb	a4,83(sp)
    5a12:	00094683          	lbu	a3,0(s2)
    5a16:	02a00713          	li	a4,42
    5a1a:	08e68063          	beq	a3,a4,5a9a <_vfiprintf_r+0x16a>
    5a1e:	47f2                	lw	a5,28(sp)
    5a20:	844a                	mv	s0,s2
    5a22:	4681                	li	a3,0
    5a24:	4625                	li	a2,9
    5a26:	00044703          	lbu	a4,0(s0)
    5a2a:	00140593          	addi	a1,s0,1
    5a2e:	fd070713          	addi	a4,a4,-48 # ffffdfd0 <_eusrstack+0xdfff8fd0>
    5a32:	0ae67963          	bgeu	a2,a4,5ae4 <_vfiprintf_r+0x1b4>
    5a36:	cab5                	beqz	a3,5aaa <_vfiprintf_r+0x17a>
    5a38:	ce3e                	sw	a5,28(sp)
    5a3a:	a885                	j	5aaa <_vfiprintf_r+0x17a>
    5a3c:	00001797          	auipc	a5,0x1
    5a40:	8fc78793          	addi	a5,a5,-1796 # 6338 <__sf_fake_stdout>
    5a44:	00f49563          	bne	s1,a5,5a4e <_vfiprintf_r+0x11e>
    5a48:	0089a483          	lw	s1,8(s3)
    5a4c:	bf39                	j	596a <_vfiprintf_r+0x3a>
    5a4e:	00001797          	auipc	a5,0x1
    5a52:	8aa78793          	addi	a5,a5,-1878 # 62f8 <__sf_fake_stderr>
    5a56:	f0f49ae3          	bne	s1,a5,596a <_vfiprintf_r+0x3a>
    5a5a:	00c9a483          	lw	s1,12(s3)
    5a5e:	b731                	j	596a <_vfiprintf_r+0x3a>
    5a60:	85a6                	mv	a1,s1
    5a62:	854e                	mv	a0,s3
    5a64:	879ff0ef          	jal	ra,52dc <__swsetup_r>
    5a68:	d519                	beqz	a0,5976 <_vfiprintf_r+0x46>
    5a6a:	557d                	li	a0,-1
    5a6c:	40fa                	lw	ra,156(sp)
    5a6e:	446a                	lw	s0,152(sp)
    5a70:	44da                	lw	s1,148(sp)
    5a72:	494a                	lw	s2,144(sp)
    5a74:	49ba                	lw	s3,140(sp)
    5a76:	4a2a                	lw	s4,136(sp)
    5a78:	4a9a                	lw	s5,132(sp)
    5a7a:	4b0a                	lw	s6,128(sp)
    5a7c:	5bf6                	lw	s7,124(sp)
    5a7e:	5c66                	lw	s8,120(sp)
    5a80:	5cd6                	lw	s9,116(sp)
    5a82:	610d                	addi	sp,sp,160
    5a84:	8082                	ret
    5a86:	0405                	addi	s0,s0,1
    5a88:	bf11                	j	599c <_vfiprintf_r+0x6c>
    5a8a:	41550533          	sub	a0,a0,s5
    5a8e:	00ac1533          	sll	a0,s8,a0
    5a92:	8fc9                	or	a5,a5,a0
    5a94:	c83e                	sw	a5,16(sp)
    5a96:	8922                	mv	s2,s0
    5a98:	b7a9                	j	59e2 <_vfiprintf_r+0xb2>
    5a9a:	4732                	lw	a4,12(sp)
    5a9c:	00470693          	addi	a3,a4,4
    5aa0:	4318                	lw	a4,0(a4)
    5aa2:	c636                	sw	a3,12(sp)
    5aa4:	02074963          	bltz	a4,5ad6 <_vfiprintf_r+0x1a6>
    5aa8:	ce3a                	sw	a4,28(sp)
    5aaa:	00044703          	lbu	a4,0(s0)
    5aae:	02e00793          	li	a5,46
    5ab2:	04f71f63          	bne	a4,a5,5b10 <_vfiprintf_r+0x1e0>
    5ab6:	00144703          	lbu	a4,1(s0)
    5aba:	02a00793          	li	a5,42
    5abe:	02f71b63          	bne	a4,a5,5af4 <_vfiprintf_r+0x1c4>
    5ac2:	47b2                	lw	a5,12(sp)
    5ac4:	0409                	addi	s0,s0,2
    5ac6:	00478713          	addi	a4,a5,4
    5aca:	439c                	lw	a5,0(a5)
    5acc:	c63a                	sw	a4,12(sp)
    5ace:	0207c163          	bltz	a5,5af0 <_vfiprintf_r+0x1c0>
    5ad2:	ca3e                	sw	a5,20(sp)
    5ad4:	a835                	j	5b10 <_vfiprintf_r+0x1e0>
    5ad6:	40e00733          	neg	a4,a4
    5ada:	0027e793          	ori	a5,a5,2
    5ade:	ce3a                	sw	a4,28(sp)
    5ae0:	c83e                	sw	a5,16(sp)
    5ae2:	b7e1                	j	5aaa <_vfiprintf_r+0x17a>
    5ae4:	036787b3          	mul	a5,a5,s6
    5ae8:	4685                	li	a3,1
    5aea:	842e                	mv	s0,a1
    5aec:	97ba                	add	a5,a5,a4
    5aee:	bf25                	j	5a26 <_vfiprintf_r+0xf6>
    5af0:	57fd                	li	a5,-1
    5af2:	b7c5                	j	5ad2 <_vfiprintf_r+0x1a2>
    5af4:	0405                	addi	s0,s0,1
    5af6:	ca02                	sw	zero,20(sp)
    5af8:	4681                	li	a3,0
    5afa:	4781                	li	a5,0
    5afc:	4625                	li	a2,9
    5afe:	00044703          	lbu	a4,0(s0)
    5b02:	00140593          	addi	a1,s0,1
    5b06:	fd070713          	addi	a4,a4,-48
    5b0a:	06e67863          	bgeu	a2,a4,5b7a <_vfiprintf_r+0x24a>
    5b0e:	f2f1                	bnez	a3,5ad2 <_vfiprintf_r+0x1a2>
    5b10:	00044583          	lbu	a1,0(s0)
    5b14:	460d                	li	a2,3
    5b16:	00001517          	auipc	a0,0x1
    5b1a:	84a50513          	addi	a0,a0,-1974 # 6360 <__sf_fake_stdout+0x28>
    5b1e:	b5aff0ef          	jal	ra,4e78 <memchr>
    5b22:	cd11                	beqz	a0,5b3e <_vfiprintf_r+0x20e>
    5b24:	00001797          	auipc	a5,0x1
    5b28:	83c78793          	addi	a5,a5,-1988 # 6360 <__sf_fake_stdout+0x28>
    5b2c:	8d1d                	sub	a0,a0,a5
    5b2e:	04000793          	li	a5,64
    5b32:	00a797b3          	sll	a5,a5,a0
    5b36:	4542                	lw	a0,16(sp)
    5b38:	0405                	addi	s0,s0,1
    5b3a:	8d5d                	or	a0,a0,a5
    5b3c:	c82a                	sw	a0,16(sp)
    5b3e:	00044583          	lbu	a1,0(s0)
    5b42:	4619                	li	a2,6
    5b44:	00001517          	auipc	a0,0x1
    5b48:	82050513          	addi	a0,a0,-2016 # 6364 <__sf_fake_stdout+0x2c>
    5b4c:	00140913          	addi	s2,s0,1
    5b50:	02b10423          	sb	a1,40(sp)
    5b54:	b24ff0ef          	jal	ra,4e78 <memchr>
    5b58:	c13d                	beqz	a0,5bbe <_vfiprintf_r+0x28e>
    5b5a:	ffffa797          	auipc	a5,0xffffa
    5b5e:	4a678793          	addi	a5,a5,1190 # 0 <_sinit>
    5b62:	e795                	bnez	a5,5b8e <_vfiprintf_r+0x25e>
    5b64:	4742                	lw	a4,16(sp)
    5b66:	47b2                	lw	a5,12(sp)
    5b68:	10077713          	andi	a4,a4,256
    5b6c:	cf09                	beqz	a4,5b86 <_vfiprintf_r+0x256>
    5b6e:	0791                	addi	a5,a5,4
    5b70:	c63e                	sw	a5,12(sp)
    5b72:	5792                	lw	a5,36(sp)
    5b74:	97d2                	add	a5,a5,s4
    5b76:	d23e                	sw	a5,36(sp)
    5b78:	b50d                	j	599a <_vfiprintf_r+0x6a>
    5b7a:	036787b3          	mul	a5,a5,s6
    5b7e:	4685                	li	a3,1
    5b80:	842e                	mv	s0,a1
    5b82:	97ba                	add	a5,a5,a4
    5b84:	bfad                	j	5afe <_vfiprintf_r+0x1ce>
    5b86:	079d                	addi	a5,a5,7
    5b88:	9be1                	andi	a5,a5,-8
    5b8a:	07a1                	addi	a5,a5,8
    5b8c:	b7d5                	j	5b70 <_vfiprintf_r+0x240>
    5b8e:	0078                	addi	a4,sp,12
    5b90:	00000697          	auipc	a3,0x0
    5b94:	d5c68693          	addi	a3,a3,-676 # 58ec <__sfputs_r>
    5b98:	8626                	mv	a2,s1
    5b9a:	080c                	addi	a1,sp,16
    5b9c:	854e                	mv	a0,s3
    5b9e:	00000097          	auipc	ra,0x0
    5ba2:	000000e7          	jalr	zero # 0 <_sinit>
    5ba6:	57fd                	li	a5,-1
    5ba8:	8a2a                	mv	s4,a0
    5baa:	fcf514e3          	bne	a0,a5,5b72 <_vfiprintf_r+0x242>
    5bae:	00c4d783          	lhu	a5,12(s1)
    5bb2:	0407f793          	andi	a5,a5,64
    5bb6:	ea079ae3          	bnez	a5,5a6a <_vfiprintf_r+0x13a>
    5bba:	5512                	lw	a0,36(sp)
    5bbc:	bd45                	j	5a6c <_vfiprintf_r+0x13c>
    5bbe:	0078                	addi	a4,sp,12
    5bc0:	00000697          	auipc	a3,0x0
    5bc4:	d2c68693          	addi	a3,a3,-724 # 58ec <__sfputs_r>
    5bc8:	8626                	mv	a2,s1
    5bca:	080c                	addi	a1,sp,16
    5bcc:	854e                	mv	a0,s3
    5bce:	2a01                	jal	5cde <_printf_i>
    5bd0:	bfd9                	j	5ba6 <_vfiprintf_r+0x276>

00005bd2 <_printf_common>:
    5bd2:	7179                	addi	sp,sp,-48
    5bd4:	ca56                	sw	s5,20(sp)
    5bd6:	499c                	lw	a5,16(a1)
    5bd8:	8aba                	mv	s5,a4
    5bda:	4598                	lw	a4,8(a1)
    5bdc:	d422                	sw	s0,40(sp)
    5bde:	d226                	sw	s1,36(sp)
    5be0:	ce4e                	sw	s3,28(sp)
    5be2:	cc52                	sw	s4,24(sp)
    5be4:	d606                	sw	ra,44(sp)
    5be6:	d04a                	sw	s2,32(sp)
    5be8:	c85a                	sw	s6,16(sp)
    5bea:	c65e                	sw	s7,12(sp)
    5bec:	89aa                	mv	s3,a0
    5bee:	842e                	mv	s0,a1
    5bf0:	84b2                	mv	s1,a2
    5bf2:	8a36                	mv	s4,a3
    5bf4:	00e7d363          	bge	a5,a4,5bfa <_printf_common+0x28>
    5bf8:	87ba                	mv	a5,a4
    5bfa:	c09c                	sw	a5,0(s1)
    5bfc:	04344703          	lbu	a4,67(s0)
    5c00:	c319                	beqz	a4,5c06 <_printf_common+0x34>
    5c02:	0785                	addi	a5,a5,1
    5c04:	c09c                	sw	a5,0(s1)
    5c06:	401c                	lw	a5,0(s0)
    5c08:	0207f793          	andi	a5,a5,32
    5c0c:	c781                	beqz	a5,5c14 <_printf_common+0x42>
    5c0e:	409c                	lw	a5,0(s1)
    5c10:	0789                	addi	a5,a5,2
    5c12:	c09c                	sw	a5,0(s1)
    5c14:	00042903          	lw	s2,0(s0)
    5c18:	00697913          	andi	s2,s2,6
    5c1c:	00091a63          	bnez	s2,5c30 <_printf_common+0x5e>
    5c20:	01940b13          	addi	s6,s0,25
    5c24:	5bfd                	li	s7,-1
    5c26:	445c                	lw	a5,12(s0)
    5c28:	4098                	lw	a4,0(s1)
    5c2a:	8f99                	sub	a5,a5,a4
    5c2c:	04f94c63          	blt	s2,a5,5c84 <_printf_common+0xb2>
    5c30:	401c                	lw	a5,0(s0)
    5c32:	04344683          	lbu	a3,67(s0)
    5c36:	0207f793          	andi	a5,a5,32
    5c3a:	00d036b3          	snez	a3,a3
    5c3e:	eba5                	bnez	a5,5cae <_printf_common+0xdc>
    5c40:	04340613          	addi	a2,s0,67
    5c44:	85d2                	mv	a1,s4
    5c46:	854e                	mv	a0,s3
    5c48:	9a82                	jalr	s5
    5c4a:	57fd                	li	a5,-1
    5c4c:	04f50363          	beq	a0,a5,5c92 <_printf_common+0xc0>
    5c50:	401c                	lw	a5,0(s0)
    5c52:	4611                	li	a2,4
    5c54:	4098                	lw	a4,0(s1)
    5c56:	8b99                	andi	a5,a5,6
    5c58:	4454                	lw	a3,12(s0)
    5c5a:	4481                	li	s1,0
    5c5c:	00c79763          	bne	a5,a2,5c6a <_printf_common+0x98>
    5c60:	40e684b3          	sub	s1,a3,a4
    5c64:	0004d363          	bgez	s1,5c6a <_printf_common+0x98>
    5c68:	4481                	li	s1,0
    5c6a:	441c                	lw	a5,8(s0)
    5c6c:	4818                	lw	a4,16(s0)
    5c6e:	00f75463          	bge	a4,a5,5c76 <_printf_common+0xa4>
    5c72:	8f99                	sub	a5,a5,a4
    5c74:	94be                	add	s1,s1,a5
    5c76:	4901                	li	s2,0
    5c78:	0469                	addi	s0,s0,26
    5c7a:	5b7d                	li	s6,-1
    5c7c:	05249863          	bne	s1,s2,5ccc <_printf_common+0xfa>
    5c80:	4501                	li	a0,0
    5c82:	a809                	j	5c94 <_printf_common+0xc2>
    5c84:	4685                	li	a3,1
    5c86:	865a                	mv	a2,s6
    5c88:	85d2                	mv	a1,s4
    5c8a:	854e                	mv	a0,s3
    5c8c:	9a82                	jalr	s5
    5c8e:	01751e63          	bne	a0,s7,5caa <_printf_common+0xd8>
    5c92:	557d                	li	a0,-1
    5c94:	50b2                	lw	ra,44(sp)
    5c96:	5422                	lw	s0,40(sp)
    5c98:	5492                	lw	s1,36(sp)
    5c9a:	5902                	lw	s2,32(sp)
    5c9c:	49f2                	lw	s3,28(sp)
    5c9e:	4a62                	lw	s4,24(sp)
    5ca0:	4ad2                	lw	s5,20(sp)
    5ca2:	4b42                	lw	s6,16(sp)
    5ca4:	4bb2                	lw	s7,12(sp)
    5ca6:	6145                	addi	sp,sp,48
    5ca8:	8082                	ret
    5caa:	0905                	addi	s2,s2,1
    5cac:	bfad                	j	5c26 <_printf_common+0x54>
    5cae:	00d40733          	add	a4,s0,a3
    5cb2:	03000613          	li	a2,48
    5cb6:	04c701a3          	sb	a2,67(a4)
    5cba:	04544703          	lbu	a4,69(s0)
    5cbe:	00168793          	addi	a5,a3,1
    5cc2:	97a2                	add	a5,a5,s0
    5cc4:	0689                	addi	a3,a3,2
    5cc6:	04e781a3          	sb	a4,67(a5)
    5cca:	bf9d                	j	5c40 <_printf_common+0x6e>
    5ccc:	4685                	li	a3,1
    5cce:	8622                	mv	a2,s0
    5cd0:	85d2                	mv	a1,s4
    5cd2:	854e                	mv	a0,s3
    5cd4:	9a82                	jalr	s5
    5cd6:	fb650ee3          	beq	a0,s6,5c92 <_printf_common+0xc0>
    5cda:	0905                	addi	s2,s2,1
    5cdc:	b745                	j	5c7c <_printf_common+0xaa>

00005cde <_printf_i>:
    5cde:	7179                	addi	sp,sp,-48
    5ce0:	d422                	sw	s0,40(sp)
    5ce2:	d226                	sw	s1,36(sp)
    5ce4:	d04a                	sw	s2,32(sp)
    5ce6:	ce4e                	sw	s3,28(sp)
    5ce8:	d606                	sw	ra,44(sp)
    5cea:	cc52                	sw	s4,24(sp)
    5cec:	ca56                	sw	s5,20(sp)
    5cee:	c85a                	sw	s6,16(sp)
    5cf0:	89b6                	mv	s3,a3
    5cf2:	0185c683          	lbu	a3,24(a1)
    5cf6:	06900793          	li	a5,105
    5cfa:	8932                	mv	s2,a2
    5cfc:	84aa                	mv	s1,a0
    5cfe:	842e                	mv	s0,a1
    5d00:	04358613          	addi	a2,a1,67
    5d04:	02f68d63          	beq	a3,a5,5d3e <_printf_i+0x60>
    5d08:	06d7e263          	bltu	a5,a3,5d6c <_printf_i+0x8e>
    5d0c:	05800793          	li	a5,88
    5d10:	18f68963          	beq	a3,a5,5ea2 <_printf_i+0x1c4>
    5d14:	00d7ed63          	bltu	a5,a3,5d2e <_printf_i+0x50>
    5d18:	22068263          	beqz	a3,5f3c <_printf_i+0x25e>
    5d1c:	04300793          	li	a5,67
    5d20:	0af68f63          	beq	a3,a5,5dde <_printf_i+0x100>
    5d24:	04240a93          	addi	s5,s0,66
    5d28:	04d40123          	sb	a3,66(s0)
    5d2c:	a0d1                	j	5df0 <_printf_i+0x112>
    5d2e:	06300793          	li	a5,99
    5d32:	0af68663          	beq	a3,a5,5dde <_printf_i+0x100>
    5d36:	06400793          	li	a5,100
    5d3a:	fef695e3          	bne	a3,a5,5d24 <_printf_i+0x46>
    5d3e:	401c                	lw	a5,0(s0)
    5d40:	4308                	lw	a0,0(a4)
    5d42:	0807f693          	andi	a3,a5,128
    5d46:	00450593          	addi	a1,a0,4
    5d4a:	c6cd                	beqz	a3,5df4 <_printf_i+0x116>
    5d4c:	411c                	lw	a5,0(a0)
    5d4e:	c30c                	sw	a1,0(a4)
    5d50:	0007d863          	bgez	a5,5d60 <_printf_i+0x82>
    5d54:	02d00713          	li	a4,45
    5d58:	40f007b3          	neg	a5,a5
    5d5c:	04e401a3          	sb	a4,67(s0)
    5d60:	00000697          	auipc	a3,0x0
    5d64:	60c68693          	addi	a3,a3,1548 # 636c <__sf_fake_stdout+0x34>
    5d68:	4729                	li	a4,10
    5d6a:	a875                	j	5e26 <_printf_i+0x148>
    5d6c:	07000793          	li	a5,112
    5d70:	16f68563          	beq	a3,a5,5eda <_printf_i+0x1fc>
    5d74:	02d7e563          	bltu	a5,a3,5d9e <_printf_i+0xc0>
    5d78:	06e00793          	li	a5,110
    5d7c:	18f68c63          	beq	a3,a5,5f14 <_printf_i+0x236>
    5d80:	06f00793          	li	a5,111
    5d84:	faf690e3          	bne	a3,a5,5d24 <_printf_i+0x46>
    5d88:	400c                	lw	a1,0(s0)
    5d8a:	431c                	lw	a5,0(a4)
    5d8c:	0805f813          	andi	a6,a1,128
    5d90:	00478513          	addi	a0,a5,4
    5d94:	06080863          	beqz	a6,5e04 <_printf_i+0x126>
    5d98:	c308                	sw	a0,0(a4)
    5d9a:	439c                	lw	a5,0(a5)
    5d9c:	a895                	j	5e10 <_printf_i+0x132>
    5d9e:	07500793          	li	a5,117
    5da2:	fef683e3          	beq	a3,a5,5d88 <_printf_i+0xaa>
    5da6:	07800793          	li	a5,120
    5daa:	12f68c63          	beq	a3,a5,5ee2 <_printf_i+0x204>
    5dae:	07300793          	li	a5,115
    5db2:	f6f699e3          	bne	a3,a5,5d24 <_printf_i+0x46>
    5db6:	431c                	lw	a5,0(a4)
    5db8:	41d0                	lw	a2,4(a1)
    5dba:	4581                	li	a1,0
    5dbc:	00478693          	addi	a3,a5,4
    5dc0:	c314                	sw	a3,0(a4)
    5dc2:	0007aa83          	lw	s5,0(a5)
    5dc6:	8556                	mv	a0,s5
    5dc8:	8b0ff0ef          	jal	ra,4e78 <memchr>
    5dcc:	c501                	beqz	a0,5dd4 <_printf_i+0xf6>
    5dce:	41550533          	sub	a0,a0,s5
    5dd2:	c048                	sw	a0,4(s0)
    5dd4:	405c                	lw	a5,4(s0)
    5dd6:	c81c                	sw	a5,16(s0)
    5dd8:	040401a3          	sb	zero,67(s0)
    5ddc:	a871                	j	5e78 <_printf_i+0x19a>
    5dde:	431c                	lw	a5,0(a4)
    5de0:	04240a93          	addi	s5,s0,66
    5de4:	00478693          	addi	a3,a5,4
    5de8:	439c                	lw	a5,0(a5)
    5dea:	c314                	sw	a3,0(a4)
    5dec:	04f40123          	sb	a5,66(s0)
    5df0:	4785                	li	a5,1
    5df2:	b7d5                	j	5dd6 <_printf_i+0xf8>
    5df4:	0407f693          	andi	a3,a5,64
    5df8:	411c                	lw	a5,0(a0)
    5dfa:	c30c                	sw	a1,0(a4)
    5dfc:	dab1                	beqz	a3,5d50 <_printf_i+0x72>
    5dfe:	07c2                	slli	a5,a5,0x10
    5e00:	87c1                	srai	a5,a5,0x10
    5e02:	b7b9                	j	5d50 <_printf_i+0x72>
    5e04:	0405f593          	andi	a1,a1,64
    5e08:	c308                	sw	a0,0(a4)
    5e0a:	d9c1                	beqz	a1,5d9a <_printf_i+0xbc>
    5e0c:	0007d783          	lhu	a5,0(a5)
    5e10:	06f00713          	li	a4,111
    5e14:	0ee68863          	beq	a3,a4,5f04 <_printf_i+0x226>
    5e18:	00000697          	auipc	a3,0x0
    5e1c:	55468693          	addi	a3,a3,1364 # 636c <__sf_fake_stdout+0x34>
    5e20:	4729                	li	a4,10
    5e22:	040401a3          	sb	zero,67(s0)
    5e26:	404c                	lw	a1,4(s0)
    5e28:	c40c                	sw	a1,8(s0)
    5e2a:	0005c563          	bltz	a1,5e34 <_printf_i+0x156>
    5e2e:	4008                	lw	a0,0(s0)
    5e30:	996d                	andi	a0,a0,-5
    5e32:	c008                	sw	a0,0(s0)
    5e34:	e399                	bnez	a5,5e3a <_printf_i+0x15c>
    5e36:	8ab2                	mv	s5,a2
    5e38:	cd91                	beqz	a1,5e54 <_printf_i+0x176>
    5e3a:	8ab2                	mv	s5,a2
    5e3c:	02e7f5b3          	remu	a1,a5,a4
    5e40:	1afd                	addi	s5,s5,-1
    5e42:	95b6                	add	a1,a1,a3
    5e44:	0005c583          	lbu	a1,0(a1)
    5e48:	00ba8023          	sb	a1,0(s5)
    5e4c:	02e7d5b3          	divu	a1,a5,a4
    5e50:	0ce7f063          	bgeu	a5,a4,5f10 <_printf_i+0x232>
    5e54:	47a1                	li	a5,8
    5e56:	00f71e63          	bne	a4,a5,5e72 <_printf_i+0x194>
    5e5a:	401c                	lw	a5,0(s0)
    5e5c:	8b85                	andi	a5,a5,1
    5e5e:	cb91                	beqz	a5,5e72 <_printf_i+0x194>
    5e60:	4058                	lw	a4,4(s0)
    5e62:	481c                	lw	a5,16(s0)
    5e64:	00e7c763          	blt	a5,a4,5e72 <_printf_i+0x194>
    5e68:	03000793          	li	a5,48
    5e6c:	fefa8fa3          	sb	a5,-1(s5)
    5e70:	1afd                	addi	s5,s5,-1
    5e72:	41560633          	sub	a2,a2,s5
    5e76:	c810                	sw	a2,16(s0)
    5e78:	874e                	mv	a4,s3
    5e7a:	86ca                	mv	a3,s2
    5e7c:	0070                	addi	a2,sp,12
    5e7e:	85a2                	mv	a1,s0
    5e80:	8526                	mv	a0,s1
    5e82:	d51ff0ef          	jal	ra,5bd2 <_printf_common>
    5e86:	5a7d                	li	s4,-1
    5e88:	0b451e63          	bne	a0,s4,5f44 <_printf_i+0x266>
    5e8c:	557d                	li	a0,-1
    5e8e:	50b2                	lw	ra,44(sp)
    5e90:	5422                	lw	s0,40(sp)
    5e92:	5492                	lw	s1,36(sp)
    5e94:	5902                	lw	s2,32(sp)
    5e96:	49f2                	lw	s3,28(sp)
    5e98:	4a62                	lw	s4,24(sp)
    5e9a:	4ad2                	lw	s5,20(sp)
    5e9c:	4b42                	lw	s6,16(sp)
    5e9e:	6145                	addi	sp,sp,48
    5ea0:	8082                	ret
    5ea2:	04d582a3          	sb	a3,69(a1)
    5ea6:	00000697          	auipc	a3,0x0
    5eaa:	4c668693          	addi	a3,a3,1222 # 636c <__sf_fake_stdout+0x34>
    5eae:	400c                	lw	a1,0(s0)
    5eb0:	4308                	lw	a0,0(a4)
    5eb2:	0805f813          	andi	a6,a1,128
    5eb6:	411c                	lw	a5,0(a0)
    5eb8:	0511                	addi	a0,a0,4
    5eba:	02080d63          	beqz	a6,5ef4 <_printf_i+0x216>
    5ebe:	c308                	sw	a0,0(a4)
    5ec0:	0015f713          	andi	a4,a1,1
    5ec4:	c701                	beqz	a4,5ecc <_printf_i+0x1ee>
    5ec6:	0205e593          	ori	a1,a1,32
    5eca:	c00c                	sw	a1,0(s0)
    5ecc:	4741                	li	a4,16
    5ece:	fbb1                	bnez	a5,5e22 <_printf_i+0x144>
    5ed0:	400c                	lw	a1,0(s0)
    5ed2:	fdf5f593          	andi	a1,a1,-33
    5ed6:	c00c                	sw	a1,0(s0)
    5ed8:	b7a9                	j	5e22 <_printf_i+0x144>
    5eda:	419c                	lw	a5,0(a1)
    5edc:	0207e793          	ori	a5,a5,32
    5ee0:	c19c                	sw	a5,0(a1)
    5ee2:	07800793          	li	a5,120
    5ee6:	04f402a3          	sb	a5,69(s0)
    5eea:	00000697          	auipc	a3,0x0
    5eee:	49668693          	addi	a3,a3,1174 # 6380 <__sf_fake_stdout+0x48>
    5ef2:	bf75                	j	5eae <_printf_i+0x1d0>
    5ef4:	0405f813          	andi	a6,a1,64
    5ef8:	c308                	sw	a0,0(a4)
    5efa:	fc0803e3          	beqz	a6,5ec0 <_printf_i+0x1e2>
    5efe:	07c2                	slli	a5,a5,0x10
    5f00:	83c1                	srli	a5,a5,0x10
    5f02:	bf7d                	j	5ec0 <_printf_i+0x1e2>
    5f04:	00000697          	auipc	a3,0x0
    5f08:	46868693          	addi	a3,a3,1128 # 636c <__sf_fake_stdout+0x34>
    5f0c:	4721                	li	a4,8
    5f0e:	bf11                	j	5e22 <_printf_i+0x144>
    5f10:	87ae                	mv	a5,a1
    5f12:	b72d                	j	5e3c <_printf_i+0x15e>
    5f14:	4194                	lw	a3,0(a1)
    5f16:	431c                	lw	a5,0(a4)
    5f18:	49cc                	lw	a1,20(a1)
    5f1a:	0806f813          	andi	a6,a3,128
    5f1e:	00478513          	addi	a0,a5,4
    5f22:	00080663          	beqz	a6,5f2e <_printf_i+0x250>
    5f26:	c308                	sw	a0,0(a4)
    5f28:	439c                	lw	a5,0(a5)
    5f2a:	c38c                	sw	a1,0(a5)
    5f2c:	a801                	j	5f3c <_printf_i+0x25e>
    5f2e:	c308                	sw	a0,0(a4)
    5f30:	0406f693          	andi	a3,a3,64
    5f34:	439c                	lw	a5,0(a5)
    5f36:	daf5                	beqz	a3,5f2a <_printf_i+0x24c>
    5f38:	00b79023          	sh	a1,0(a5)
    5f3c:	00042823          	sw	zero,16(s0)
    5f40:	8ab2                	mv	s5,a2
    5f42:	bf1d                	j	5e78 <_printf_i+0x19a>
    5f44:	4814                	lw	a3,16(s0)
    5f46:	8656                	mv	a2,s5
    5f48:	85ca                	mv	a1,s2
    5f4a:	8526                	mv	a0,s1
    5f4c:	9982                	jalr	s3
    5f4e:	f3450fe3          	beq	a0,s4,5e8c <_printf_i+0x1ae>
    5f52:	401c                	lw	a5,0(s0)
    5f54:	8b89                	andi	a5,a5,2
    5f56:	e78d                	bnez	a5,5f80 <_printf_i+0x2a2>
    5f58:	47b2                	lw	a5,12(sp)
    5f5a:	4448                	lw	a0,12(s0)
    5f5c:	f2f559e3          	bge	a0,a5,5e8e <_printf_i+0x1b0>
    5f60:	853e                	mv	a0,a5
    5f62:	b735                	j	5e8e <_printf_i+0x1b0>
    5f64:	4685                	li	a3,1
    5f66:	8656                	mv	a2,s5
    5f68:	85ca                	mv	a1,s2
    5f6a:	8526                	mv	a0,s1
    5f6c:	9982                	jalr	s3
    5f6e:	f1650fe3          	beq	a0,s6,5e8c <_printf_i+0x1ae>
    5f72:	0a05                	addi	s4,s4,1
    5f74:	445c                	lw	a5,12(s0)
    5f76:	4732                	lw	a4,12(sp)
    5f78:	8f99                	sub	a5,a5,a4
    5f7a:	fefa45e3          	blt	s4,a5,5f64 <_printf_i+0x286>
    5f7e:	bfe9                	j	5f58 <_printf_i+0x27a>
    5f80:	4a01                	li	s4,0
    5f82:	01940a93          	addi	s5,s0,25
    5f86:	5b7d                	li	s6,-1
    5f88:	b7f5                	j	5f74 <_printf_i+0x296>

00005f8a <__sread>:
    5f8a:	1141                	addi	sp,sp,-16
    5f8c:	c422                	sw	s0,8(sp)
    5f8e:	842e                	mv	s0,a1
    5f90:	00e59583          	lh	a1,14(a1)
    5f94:	c606                	sw	ra,12(sp)
    5f96:	226d                	jal	6140 <_read_r>
    5f98:	00054963          	bltz	a0,5faa <__sread+0x20>
    5f9c:	487c                	lw	a5,84(s0)
    5f9e:	97aa                	add	a5,a5,a0
    5fa0:	c87c                	sw	a5,84(s0)
    5fa2:	40b2                	lw	ra,12(sp)
    5fa4:	4422                	lw	s0,8(sp)
    5fa6:	0141                	addi	sp,sp,16
    5fa8:	8082                	ret
    5faa:	00c45783          	lhu	a5,12(s0)
    5fae:	777d                	lui	a4,0xfffff
    5fb0:	177d                	addi	a4,a4,-1
    5fb2:	8ff9                	and	a5,a5,a4
    5fb4:	00f41623          	sh	a5,12(s0)
    5fb8:	b7ed                	j	5fa2 <__sread+0x18>

00005fba <__swrite>:
    5fba:	00c5d783          	lhu	a5,12(a1)
    5fbe:	1101                	addi	sp,sp,-32
    5fc0:	cc22                	sw	s0,24(sp)
    5fc2:	ca26                	sw	s1,20(sp)
    5fc4:	c84a                	sw	s2,16(sp)
    5fc6:	c64e                	sw	s3,12(sp)
    5fc8:	ce06                	sw	ra,28(sp)
    5fca:	1007f793          	andi	a5,a5,256
    5fce:	84aa                	mv	s1,a0
    5fd0:	842e                	mv	s0,a1
    5fd2:	8932                	mv	s2,a2
    5fd4:	89b6                	mv	s3,a3
    5fd6:	c791                	beqz	a5,5fe2 <__swrite+0x28>
    5fd8:	00e59583          	lh	a1,14(a1)
    5fdc:	4689                	li	a3,2
    5fde:	4601                	li	a2,0
    5fe0:	2235                	jal	610c <_lseek_r>
    5fe2:	00c45783          	lhu	a5,12(s0)
    5fe6:	777d                	lui	a4,0xfffff
    5fe8:	177d                	addi	a4,a4,-1
    5fea:	8ff9                	and	a5,a5,a4
    5fec:	00f41623          	sh	a5,12(s0)
    5ff0:	00e41583          	lh	a1,14(s0)
    5ff4:	4462                	lw	s0,24(sp)
    5ff6:	40f2                	lw	ra,28(sp)
    5ff8:	86ce                	mv	a3,s3
    5ffa:	864a                	mv	a2,s2
    5ffc:	49b2                	lw	s3,12(sp)
    5ffe:	4942                	lw	s2,16(sp)
    6000:	8526                	mv	a0,s1
    6002:	44d2                	lw	s1,20(sp)
    6004:	6105                	addi	sp,sp,32
    6006:	a83d                	j	6044 <_write_r>

00006008 <__sseek>:
    6008:	1141                	addi	sp,sp,-16
    600a:	c422                	sw	s0,8(sp)
    600c:	842e                	mv	s0,a1
    600e:	00e59583          	lh	a1,14(a1)
    6012:	c606                	sw	ra,12(sp)
    6014:	28e5                	jal	610c <_lseek_r>
    6016:	57fd                	li	a5,-1
    6018:	00c45703          	lhu	a4,12(s0)
    601c:	00f51b63          	bne	a0,a5,6032 <__sseek+0x2a>
    6020:	77fd                	lui	a5,0xfffff
    6022:	17fd                	addi	a5,a5,-1
    6024:	8ff9                	and	a5,a5,a4
    6026:	00f41623          	sh	a5,12(s0)
    602a:	40b2                	lw	ra,12(sp)
    602c:	4422                	lw	s0,8(sp)
    602e:	0141                	addi	sp,sp,16
    6030:	8082                	ret
    6032:	6785                	lui	a5,0x1
    6034:	8fd9                	or	a5,a5,a4
    6036:	00f41623          	sh	a5,12(s0)
    603a:	c868                	sw	a0,84(s0)
    603c:	b7fd                	j	602a <__sseek+0x22>

0000603e <__sclose>:
    603e:	00e59583          	lh	a1,14(a1)
    6042:	a825                	j	607a <_close_r>

00006044 <_write_r>:
    6044:	1141                	addi	sp,sp,-16
    6046:	c422                	sw	s0,8(sp)
    6048:	842a                	mv	s0,a0
    604a:	852e                	mv	a0,a1
    604c:	85b2                	mv	a1,a2
    604e:	8636                	mv	a2,a3
    6050:	1fffb797          	auipc	a5,0x1fffb
    6054:	3607aa23          	sw	zero,884(a5) # 200013c4 <errno>
    6058:	c606                	sw	ra,12(sp)
    605a:	dadfe0ef          	jal	ra,4e06 <_write>
    605e:	57fd                	li	a5,-1
    6060:	00f51963          	bne	a0,a5,6072 <_write_r+0x2e>
    6064:	1fffb797          	auipc	a5,0x1fffb
    6068:	36078793          	addi	a5,a5,864 # 200013c4 <errno>
    606c:	439c                	lw	a5,0(a5)
    606e:	c391                	beqz	a5,6072 <_write_r+0x2e>
    6070:	c01c                	sw	a5,0(s0)
    6072:	40b2                	lw	ra,12(sp)
    6074:	4422                	lw	s0,8(sp)
    6076:	0141                	addi	sp,sp,16
    6078:	8082                	ret

0000607a <_close_r>:
    607a:	1141                	addi	sp,sp,-16
    607c:	c422                	sw	s0,8(sp)
    607e:	842a                	mv	s0,a0
    6080:	852e                	mv	a0,a1
    6082:	1fffb797          	auipc	a5,0x1fffb
    6086:	3407a123          	sw	zero,834(a5) # 200013c4 <errno>
    608a:	c606                	sw	ra,12(sp)
    608c:	20e5                	jal	6174 <_close>
    608e:	57fd                	li	a5,-1
    6090:	00f51963          	bne	a0,a5,60a2 <_close_r+0x28>
    6094:	1fffb797          	auipc	a5,0x1fffb
    6098:	33078793          	addi	a5,a5,816 # 200013c4 <errno>
    609c:	439c                	lw	a5,0(a5)
    609e:	c391                	beqz	a5,60a2 <_close_r+0x28>
    60a0:	c01c                	sw	a5,0(s0)
    60a2:	40b2                	lw	ra,12(sp)
    60a4:	4422                	lw	s0,8(sp)
    60a6:	0141                	addi	sp,sp,16
    60a8:	8082                	ret

000060aa <_fstat_r>:
    60aa:	1141                	addi	sp,sp,-16
    60ac:	c422                	sw	s0,8(sp)
    60ae:	842a                	mv	s0,a0
    60b0:	852e                	mv	a0,a1
    60b2:	85b2                	mv	a1,a2
    60b4:	1fffb797          	auipc	a5,0x1fffb
    60b8:	3007a823          	sw	zero,784(a5) # 200013c4 <errno>
    60bc:	c606                	sw	ra,12(sp)
    60be:	20d9                	jal	6184 <_fstat>
    60c0:	57fd                	li	a5,-1
    60c2:	00f51963          	bne	a0,a5,60d4 <_fstat_r+0x2a>
    60c6:	1fffb797          	auipc	a5,0x1fffb
    60ca:	2fe78793          	addi	a5,a5,766 # 200013c4 <errno>
    60ce:	439c                	lw	a5,0(a5)
    60d0:	c391                	beqz	a5,60d4 <_fstat_r+0x2a>
    60d2:	c01c                	sw	a5,0(s0)
    60d4:	40b2                	lw	ra,12(sp)
    60d6:	4422                	lw	s0,8(sp)
    60d8:	0141                	addi	sp,sp,16
    60da:	8082                	ret

000060dc <_isatty_r>:
    60dc:	1141                	addi	sp,sp,-16
    60de:	c422                	sw	s0,8(sp)
    60e0:	842a                	mv	s0,a0
    60e2:	852e                	mv	a0,a1
    60e4:	1fffb797          	auipc	a5,0x1fffb
    60e8:	2e07a023          	sw	zero,736(a5) # 200013c4 <errno>
    60ec:	c606                	sw	ra,12(sp)
    60ee:	205d                	jal	6194 <_isatty>
    60f0:	57fd                	li	a5,-1
    60f2:	00f51963          	bne	a0,a5,6104 <_isatty_r+0x28>
    60f6:	1fffb797          	auipc	a5,0x1fffb
    60fa:	2ce78793          	addi	a5,a5,718 # 200013c4 <errno>
    60fe:	439c                	lw	a5,0(a5)
    6100:	c391                	beqz	a5,6104 <_isatty_r+0x28>
    6102:	c01c                	sw	a5,0(s0)
    6104:	40b2                	lw	ra,12(sp)
    6106:	4422                	lw	s0,8(sp)
    6108:	0141                	addi	sp,sp,16
    610a:	8082                	ret

0000610c <_lseek_r>:
    610c:	1141                	addi	sp,sp,-16
    610e:	c422                	sw	s0,8(sp)
    6110:	842a                	mv	s0,a0
    6112:	852e                	mv	a0,a1
    6114:	85b2                	mv	a1,a2
    6116:	8636                	mv	a2,a3
    6118:	1fffb797          	auipc	a5,0x1fffb
    611c:	2a07a623          	sw	zero,684(a5) # 200013c4 <errno>
    6120:	c606                	sw	ra,12(sp)
    6122:	2049                	jal	61a4 <_lseek>
    6124:	57fd                	li	a5,-1
    6126:	00f51963          	bne	a0,a5,6138 <_lseek_r+0x2c>
    612a:	1fffb797          	auipc	a5,0x1fffb
    612e:	29a78793          	addi	a5,a5,666 # 200013c4 <errno>
    6132:	439c                	lw	a5,0(a5)
    6134:	c391                	beqz	a5,6138 <_lseek_r+0x2c>
    6136:	c01c                	sw	a5,0(s0)
    6138:	40b2                	lw	ra,12(sp)
    613a:	4422                	lw	s0,8(sp)
    613c:	0141                	addi	sp,sp,16
    613e:	8082                	ret

00006140 <_read_r>:
    6140:	1141                	addi	sp,sp,-16
    6142:	c422                	sw	s0,8(sp)
    6144:	842a                	mv	s0,a0
    6146:	852e                	mv	a0,a1
    6148:	85b2                	mv	a1,a2
    614a:	8636                	mv	a2,a3
    614c:	1fffb797          	auipc	a5,0x1fffb
    6150:	2607ac23          	sw	zero,632(a5) # 200013c4 <errno>
    6154:	c606                	sw	ra,12(sp)
    6156:	28b9                	jal	61b4 <_read>
    6158:	57fd                	li	a5,-1
    615a:	00f51963          	bne	a0,a5,616c <_read_r+0x2c>
    615e:	1fffb797          	auipc	a5,0x1fffb
    6162:	26678793          	addi	a5,a5,614 # 200013c4 <errno>
    6166:	439c                	lw	a5,0(a5)
    6168:	c391                	beqz	a5,616c <_read_r+0x2c>
    616a:	c01c                	sw	a5,0(s0)
    616c:	40b2                	lw	ra,12(sp)
    616e:	4422                	lw	s0,8(sp)
    6170:	0141                	addi	sp,sp,16
    6172:	8082                	ret

00006174 <_close>:
    6174:	05800793          	li	a5,88
    6178:	1fffb717          	auipc	a4,0x1fffb
    617c:	24f72623          	sw	a5,588(a4) # 200013c4 <errno>
    6180:	557d                	li	a0,-1
    6182:	8082                	ret

00006184 <_fstat>:
    6184:	05800793          	li	a5,88
    6188:	1fffb717          	auipc	a4,0x1fffb
    618c:	22f72e23          	sw	a5,572(a4) # 200013c4 <errno>
    6190:	557d                	li	a0,-1
    6192:	8082                	ret

00006194 <_isatty>:
    6194:	05800793          	li	a5,88
    6198:	1fffb717          	auipc	a4,0x1fffb
    619c:	22f72623          	sw	a5,556(a4) # 200013c4 <errno>
    61a0:	4501                	li	a0,0
    61a2:	8082                	ret

000061a4 <_lseek>:
    61a4:	05800793          	li	a5,88
    61a8:	1fffb717          	auipc	a4,0x1fffb
    61ac:	20f72e23          	sw	a5,540(a4) # 200013c4 <errno>
    61b0:	557d                	li	a0,-1
    61b2:	8082                	ret

000061b4 <_read>:
    61b4:	05800793          	li	a5,88
    61b8:	1fffb717          	auipc	a4,0x1fffb
    61bc:	20f72623          	sw	a5,524(a4) # 200013c4 <errno>
    61c0:	557d                	li	a0,-1
    61c2:	8082                	ret
    61c4:	09b6                	slli	s3,s3,0xd
    61c6:	0000                	unimp
    61c8:	0808                	addi	a0,sp,16
    61ca:	0000                	unimp
    61cc:	0864                	addi	s1,sp,28
    61ce:	0000                	unimp
    61d0:	08c8                	addi	a0,sp,84
    61d2:	0000                	unimp
    61d4:	0864                	addi	s1,sp,28
    61d6:	0000                	unimp
    61d8:	0792                	slli	a5,a5,0x4
    61da:	0000                	unimp
    61dc:	06a6                	slli	a3,a3,0x9
    61de:	0000                	unimp
    61e0:	0864                	addi	s1,sp,28
    61e2:	0000                	unimp
    61e4:	07dc                	addi	a5,sp,964
    61e6:	0000                	unimp
    61e8:	07f4                	addi	a3,sp,972
    61ea:	0000                	unimp
    61ec:	09b0                	addi	a2,sp,216
    61ee:	0000                	unimp
    61f0:	079e                	slli	a5,a5,0x7
    61f2:	0000                	unimp
    61f4:	74737953          	0x74737953
    61f8:	6d65                	lui	s10,0x19
    61fa:	3a6b6c43          	fmadd.d	fs8,fs6,ft6,ft7,unknown
    61fe:	6425                	lui	s0,0x9
    6200:	0a0d                	addi	s4,s4,3
    6202:	0000                	unimp
    6204:	6954                	flw	fa3,20(a0)
    6206:	656d                	lui	a0,0x1b
    6208:	2072                	fld	ft0,280(sp)
    620a:	6e49                	lui	t3,0x12
    620c:	7469                	lui	s0,0xffffa
    620e:	000d                	c.nop	3
    6210:	6f48                	flw	fa0,28(a4)
    6212:	69207473          	csrrci	s0,0x692,0
    6216:	696e                	flw	fs2,216(sp)
    6218:	0d74                	addi	a3,sp,668
	...

0000621c <MyCfgDescr>:
    621c:	0209 003c 0101 8000 0932 0004 0600 ffff     ..<.....2.......
    622c:	00ff 0507 0286 0040 0700 0505 4002 0000     ......@......@..
    623c:	0507 0284 0040 0700 0305 4002 0000 0507     ....@......@....
    624c:	0282 0040 0700 0105 4002 0000               ..@......@..

00006258 <MyDevDescr>:
    6258:	0112 0110 ffff 40ff 1a86 5537 0001 0201     .......@..7U....
    6268:	0100 0000                                   ....

0000626c <MyManuInfo>:
    626c:	030e 0077 0063 0068 002e 0063 006e 0000     ..w.c.h...c.n...

0000627c <MyProdInfo>:
    627c:	0312 0043 0048 0033 0032 0056 0031 0030     ..C.H.3.2.V.1.0.
    628c:	0078 0000                                   x...

00006290 <MySerNumInfo>:
    6290:	0316 0030 0031 0032 0033 0034 0035 0036     ..0.1.2.3.4.5.6.
    62a0:	0037 0038 0039 0000 7375 2062 6e65 6574     7.8.9...usb ente
    62b0:	2072 6f6c 2077 6f70 6577 2072 6f6d 6564     r low power mode
    62c0:	000d 0000 7375 2062 656c 7661 2065 6f6c     ....usb leave lo
    62d0:	2077 6f70 6577 2072 6f6d 6564 000d 0000     w power mode....
    62e0:	4bd8 0000 4bec 0000 4bfe 0000 4c08 0000     .K...K...K...L..
    62f0:	4c24 0000 4c44 0000                         $L..DL..

000062f8 <__sf_fake_stderr>:
	...

00006318 <__sf_fake_stdin>:
	...

00006338 <__sf_fake_stdout>:
	...
    6358:	2d23 2b30 0020 0000 6c68 004c 6665 4567     #-0+ ...hlL.efgE
    6368:	4746 0000 3130 3332 3534 3736 3938 4241     FG..0123456789AB
    6378:	4443 4645 0000 0000 3130 3332 3534 3736     CDEF....01234567
    6388:	3938 6261 6463 6665 0000 0000               89abcdef....
